(lp0
Vhttps://www.collegedata.com/cs/data/college/college_pg01_tmpl.jhtml?schoolId=659
p1
aVhttps://www.collegedata.com/cs/data/college/college_pg01_tmpl.jhtml?schoolId=1190
p2
aVhttps://www.collegedata.com/cs/data/college/college_pg01_tmpl.jhtml?schoolId=298
p3
aVhttps://www.collegedata.com/cs/data/college/college_pg01_tmpl.jhtml?schoolId=3050
p4
aVhttps://www.collegedata.com/cs/data/college/college_pg01_tmpl.jhtml?schoolId=457
p5
aVhttps://www.collegedata.com/cs/data/college/college_pg01_tmpl.jhtml?schoolId=1187
p6
aVhttps://www.collegedata.com/cs/data/college/college_pg01_tmpl.jhtml?schoolId=3169
p7
aVhttps://www.collegedata.com/cs/data/college/college_pg01_tmpl.jhtml?schoolId=1818
p8
aVhttps://www.collegedata.com/cs/data/college/college_pg01_tmpl.jhtml?schoolId=3334
p9
aVhttps://www.collegedata.com/cs/data/college/college_pg01_tmpl.jhtml?schoolId=461
p10
aVhttps://www.collegedata.com/cs/data/college/college_pg01_tmpl.jhtml?schoolId=462
p11
aVhttps://www.collegedata.com/cs/data/college/college_pg01_tmpl.jhtml?schoolId=909
p12
aVhttps://www.collegedata.com/cs/data/college/college_pg01_tmpl.jhtml?schoolId=3170
p13
aVhttps://www.collegedata.com/cs/data/college/college_pg01_tmpl.jhtml?schoolId=1185
p14
aVhttps://www.collegedata.com/cs/data/college/college_pg01_tmpl.jhtml?schoolId=1965
p15
aVhttps://www.collegedata.com/cs/data/college/college_pg01_tmpl.jhtml?schoolId=2082
p16
aVhttps://www.collegedata.com/cs/data/college/college_pg01_tmpl.jhtml?schoolId=2089
p17
aVhttps://www.collegedata.com/cs/data/college/college_pg01_tmpl.jhtml?schoolId=1287
p18
aVhttps://www.collegedata.com/cs/data/college/college_pg01_tmpl.jhtml?schoolId=477
p19
aVhttps://www.collegedata.com/cs/data/college/college_pg01_tmpl.jhtml?schoolId=478
p20
aVhttps://www.collegedata.com/cs/data/college/college_pg01_tmpl.jhtml?schoolId=1386
p21
aVhttps://www.collegedata.com/cs/data/college/college_pg01_tmpl.jhtml?schoolId=464
p22
aVhttps://www.collegedata.com/cs/data/college/college_pg01_tmpl.jhtml?schoolId=3034
p23
aVhttps://www.collegedata.com/cs/data/college/college_pg01_tmpl.jhtml?schoolId=2045
p24
aVhttps://www.collegedata.com/cs/data/college/college_pg01_tmpl.jhtml?schoolId=2017
p25
aVhttps://www.collegedata.com/cs/data/college/college_pg01_tmpl.jhtml?schoolId=1186
p26
aVhttps://www.collegedata.com/cs/data/college/college_pg01_tmpl.jhtml?schoolId=459
p27
aVhttps://www.collegedata.com/cs/data/college/college_pg01_tmpl.jhtml?schoolId=463
p28
aVhttps://www.collegedata.com/cs/data/college/college_pg01_tmpl.jhtml?schoolId=677
p29
aVhttps://www.collegedata.com/cs/data/college/college_pg01_tmpl.jhtml?schoolId=3173
p30
aVhttps://www.collegedata.com/cs/data/college/college_pg01_tmpl.jhtml?schoolId=1821
p31
aVhttps://www.collegedata.com/cs/data/college/college_pg01_tmpl.jhtml?schoolId=1242
p32
aVhttps://www.collegedata.com/cs/data/college/college_pg01_tmpl.jhtml?schoolId=1189
p33
aVhttps://www.collegedata.com/cs/data/college/college_pg01_tmpl.jhtml?schoolId=1183
p34
aVhttps://www.collegedata.com/cs/data/college/college_pg01_tmpl.jhtml?schoolId=1387
p35
aVhttps://www.collegedata.com/cs/data/college/college_pg01_tmpl.jhtml?schoolId=1994
p36
aVhttps://www.collegedata.com/cs/data/college/college_pg01_tmpl.jhtml?schoolId=1074
p37
aVhttps://www.collegedata.com/cs/data/college/college_pg01_tmpl.jhtml?schoolId=1412
p38
aVhttps://www.collegedata.com/cs/data/college/college_pg01_tmpl.jhtml?schoolId=301
p39
aVhttps://www.collegedata.com/cs/data/college/college_pg01_tmpl.jhtml?schoolId=367
p40
aVhttps://www.collegedata.com/cs/data/college/college_pg01_tmpl.jhtml?schoolId=303
p41
aVhttps://www.collegedata.com/cs/data/college/college_pg01_tmpl.jhtml?schoolId=305
p42
aVhttps://www.collegedata.com/cs/data/college/college_pg01_tmpl.jhtml?schoolId=1352
p43
aVhttps://www.collegedata.com/cs/data/college/college_pg01_tmpl.jhtml?schoolId=306
p44
aVhttps://www.collegedata.com/cs/data/college/college_pg01_tmpl.jhtml?schoolId=307
p45
aVhttps://www.collegedata.com/cs/data/college/college_pg01_tmpl.jhtml?schoolId=308
p46
aVhttps://www.collegedata.com/cs/data/college/college_pg01_tmpl.jhtml?schoolId=3264
p47
aVhttps://www.collegedata.com/cs/data/college/college_pg01_tmpl.jhtml?schoolId=3265
p48
aVhttps://www.collegedata.com/cs/data/college/college_pg01_tmpl.jhtml?schoolId=311
p49
aVhttps://www.collegedata.com/cs/data/college/college_pg01_tmpl.jhtml?schoolId=312
p50
aVhttps://www.collegedata.com/cs/data/college/college_pg01_tmpl.jhtml?schoolId=313
p51
aVhttps://www.collegedata.com/cs/data/college/college_pg01_tmpl.jhtml?schoolId=824
p52
aVhttps://www.collegedata.com/cs/data/college/college_pg01_tmpl.jhtml?schoolId=314
p53
aVhttps://www.collegedata.com/cs/data/college/college_pg01_tmpl.jhtml?schoolId=315
p54
aVhttps://www.collegedata.com/cs/data/college/college_pg01_tmpl.jhtml?schoolId=317
p55
aVhttps://www.collegedata.com/cs/data/college/college_pg01_tmpl.jhtml?schoolId=318
p56
aVhttps://www.collegedata.com/cs/data/college/college_pg01_tmpl.jhtml?schoolId=966
p57
aVhttps://www.collegedata.com/cs/data/college/college_pg01_tmpl.jhtml?schoolId=319
p58
aVhttps://www.collegedata.com/cs/data/college/college_pg01_tmpl.jhtml?schoolId=1452
p59
aVhttps://www.collegedata.com/cs/data/college/college_pg01_tmpl.jhtml?schoolId=1288
p60
aVhttps://www.collegedata.com/cs/data/college/college_pg01_tmpl.jhtml?schoolId=323
p61
aVhttps://www.collegedata.com/cs/data/college/college_pg01_tmpl.jhtml?schoolId=325
p62
aVhttps://www.collegedata.com/cs/data/college/college_pg01_tmpl.jhtml?schoolId=3214
p63
aVhttps://www.collegedata.com/cs/data/college/college_pg01_tmpl.jhtml?schoolId=3215
p64
aVhttps://www.collegedata.com/cs/data/college/college_pg01_tmpl.jhtml?schoolId=3218
p65
aVhttps://www.collegedata.com/cs/data/college/college_pg01_tmpl.jhtml?schoolId=2097
p66
aVhttps://www.collegedata.com/cs/data/college/college_pg01_tmpl.jhtml?schoolId=3100
p67
aVhttps://www.collegedata.com/cs/data/college/college_pg01_tmpl.jhtml?schoolId=2098
p68
aVhttps://www.collegedata.com/cs/data/college/college_pg01_tmpl.jhtml?schoolId=326
p69
aVhttps://www.collegedata.com/cs/data/college/college_pg01_tmpl.jhtml?schoolId=328
p70
aVhttps://www.collegedata.com/cs/data/college/college_pg01_tmpl.jhtml?schoolId=331
p71
aVhttps://www.collegedata.com/cs/data/college/college_pg01_tmpl.jhtml?schoolId=332
p72
aVhttps://www.collegedata.com/cs/data/college/college_pg01_tmpl.jhtml?schoolId=333
p73
aVhttps://www.collegedata.com/cs/data/college/college_pg01_tmpl.jhtml?schoolId=334
p74
aVhttps://www.collegedata.com/cs/data/college/college_pg01_tmpl.jhtml?schoolId=887
p75
aVhttps://www.collegedata.com/cs/data/college/college_pg01_tmpl.jhtml?schoolId=1925
p76
aVhttps://www.collegedata.com/cs/data/college/college_pg01_tmpl.jhtml?schoolId=950
p77
aVhttps://www.collegedata.com/cs/data/college/college_pg01_tmpl.jhtml?schoolId=1692
p78
aVhttps://www.collegedata.com/cs/data/college/college_pg01_tmpl.jhtml?schoolId=336
p79
aVhttps://www.collegedata.com/cs/data/college/college_pg01_tmpl.jhtml?schoolId=1411
p80
aVhttps://www.collegedata.com/cs/data/college/college_pg01_tmpl.jhtml?schoolId=338
p81
aVhttps://www.collegedata.com/cs/data/college/college_pg01_tmpl.jhtml?schoolId=341
p82
aVhttps://www.collegedata.com/cs/data/college/college_pg01_tmpl.jhtml?schoolId=340
p83
aVhttps://www.collegedata.com/cs/data/college/college_pg01_tmpl.jhtml?schoolId=1229
p84
aVhttps://www.collegedata.com/cs/data/college/college_pg01_tmpl.jhtml?schoolId=344
p85
aVhttps://www.collegedata.com/cs/data/college/college_pg01_tmpl.jhtml?schoolId=831
p86
aVhttps://www.collegedata.com/cs/data/college/college_pg01_tmpl.jhtml?schoolId=1285
p87
aVhttps://www.collegedata.com/cs/data/college/college_pg01_tmpl.jhtml?schoolId=3200
p88
aVhttps://www.collegedata.com/cs/data/college/college_pg01_tmpl.jhtml?schoolId=1098
p89
aVhttps://www.collegedata.com/cs/data/college/college_pg01_tmpl.jhtml?schoolId=1388
p90
aVhttps://www.collegedata.com/cs/data/college/college_pg01_tmpl.jhtml?schoolId=2040
p91
aVhttps://www.collegedata.com/cs/data/college/college_pg01_tmpl.jhtml?schoolId=350
p92
aVhttps://www.collegedata.com/cs/data/college/college_pg01_tmpl.jhtml?schoolId=351
p93
aVhttps://www.collegedata.com/cs/data/college/college_pg01_tmpl.jhtml?schoolId=354
p94
aVhttps://www.collegedata.com/cs/data/college/college_pg01_tmpl.jhtml?schoolId=357
p95
aVhttps://www.collegedata.com/cs/data/college/college_pg01_tmpl.jhtml?schoolId=701
p96
aVhttps://www.collegedata.com/cs/data/college/college_pg01_tmpl.jhtml?schoolId=348
p97
aVhttps://www.collegedata.com/cs/data/college/college_pg01_tmpl.jhtml?schoolId=349
p98
aVhttps://www.collegedata.com/cs/data/college/college_pg01_tmpl.jhtml?schoolId=1671
p99
aVhttps://www.collegedata.com/cs/data/college/college_pg01_tmpl.jhtml?schoolId=803
p100
aVhttps://www.collegedata.com/cs/data/college/college_pg01_tmpl.jhtml?schoolId=935
p101
aVhttps://www.collegedata.com/cs/data/college/college_pg01_tmpl.jhtml?schoolId=639
p102
aVhttps://www.collegedata.com/cs/data/college/college_pg01_tmpl.jhtml?schoolId=954
p103
aVhttps://www.collegedata.com/cs/data/college/college_pg01_tmpl.jhtml?schoolId=291
p104
aVhttps://www.collegedata.com/cs/data/college/college_pg01_tmpl.jhtml?schoolId=1780
p105
aVhttps://www.collegedata.com/cs/data/college/college_pg01_tmpl.jhtml?schoolId=958
p106
aVhttps://www.collegedata.com/cs/data/college/college_pg01_tmpl.jhtml?schoolId=2068
p107
aVhttps://www.collegedata.com/cs/data/college/college_pg01_tmpl.jhtml?schoolId=1005
p108
aVhttps://www.collegedata.com/cs/data/college/college_pg01_tmpl.jhtml?schoolId=1781
p109
aVhttps://www.collegedata.com/cs/data/college/college_pg01_tmpl.jhtml?schoolId=965
p110
aVhttps://www.collegedata.com/cs/data/college/college_pg01_tmpl.jhtml?schoolId=3207
p111
aVhttps://www.collegedata.com/cs/data/college/college_pg01_tmpl.jhtml?schoolId=1019
p112
aVhttps://www.collegedata.com/cs/data/college/college_pg01_tmpl.jhtml?schoolId=567
p113
aVhttps://www.collegedata.com/cs/data/college/college_pg01_tmpl.jhtml?schoolId=1736
p114
aVhttps://www.collegedata.com/cs/data/college/college_pg01_tmpl.jhtml?schoolId=1757
p115
aVhttps://www.collegedata.com/cs/data/college/college_pg01_tmpl.jhtml?schoolId=891
p116
aVhttps://www.collegedata.com/cs/data/college/college_pg01_tmpl.jhtml?schoolId=1371
p117
aVhttps://www.collegedata.com/cs/data/college/college_pg01_tmpl.jhtml?schoolId=1758
p118
aVhttps://www.collegedata.com/cs/data/college/college_pg01_tmpl.jhtml?schoolId=804
p119
aVhttps://www.collegedata.com/cs/data/college/college_pg01_tmpl.jhtml?schoolId=1360
p120
aVhttps://www.collegedata.com/cs/data/college/college_pg01_tmpl.jhtml?schoolId=365
p121
aVhttps://www.collegedata.com/cs/data/college/college_pg01_tmpl.jhtml?schoolId=1032
p122
aVhttps://www.collegedata.com/cs/data/college/college_pg01_tmpl.jhtml?schoolId=421
p123
aVhttps://www.collegedata.com/cs/data/college/college_pg01_tmpl.jhtml?schoolId=1293
p124
aVhttps://www.collegedata.com/cs/data/college/college_pg01_tmpl.jhtml?schoolId=998
p125
aVhttps://www.collegedata.com/cs/data/college/college_pg01_tmpl.jhtml?schoolId=366
p126
aVhttps://www.collegedata.com/cs/data/college/college_pg01_tmpl.jhtml?schoolId=1682
p127
aVhttps://www.collegedata.com/cs/data/college/college_pg01_tmpl.jhtml?schoolId=1035
p128
aVhttps://www.collegedata.com/cs/data/college/college_pg01_tmpl.jhtml?schoolId=1849
p129
aVhttps://www.collegedata.com/cs/data/college/college_pg01_tmpl.jhtml?schoolId=962
p130
aVhttps://www.collegedata.com/cs/data/college/college_pg01_tmpl.jhtml?schoolId=1808
p131
aVhttps://www.collegedata.com/cs/data/college/college_pg01_tmpl.jhtml?schoolId=1507
p132
aVhttps://www.collegedata.com/cs/data/college/college_pg01_tmpl.jhtml?schoolId=3273
p133
aVhttps://www.collegedata.com/cs/data/college/college_pg01_tmpl.jhtml?schoolId=3167
p134
aVhttps://www.collegedata.com/cs/data/college/college_pg01_tmpl.jhtml?schoolId=3013
p135
aVhttps://www.collegedata.com/cs/data/college/college_pg01_tmpl.jhtml?schoolId=3168
p136
aVhttps://www.collegedata.com/cs/data/college/college_pg01_tmpl.jhtml?schoolId=3045
p137
aVhttps://www.collegedata.com/cs/data/college/college_pg01_tmpl.jhtml?schoolId=1759
p138
aVhttps://www.collegedata.com/cs/data/college/college_pg01_tmpl.jhtml?schoolId=1783
p139
aVhttps://www.collegedata.com/cs/data/college/college_pg01_tmpl.jhtml?schoolId=2048
p140
aVhttps://www.collegedata.com/cs/data/college/college_pg01_tmpl.jhtml?schoolId=1760
p141
aVhttps://www.collegedata.com/cs/data/college/college_pg01_tmpl.jhtml?schoolId=703
p142
aVhttps://www.collegedata.com/cs/data/college/college_pg01_tmpl.jhtml?schoolId=1105
p143
aVhttps://www.collegedata.com/cs/data/college/college_pg01_tmpl.jhtml?schoolId=1766
p144
aVhttps://www.collegedata.com/cs/data/college/college_pg01_tmpl.jhtml?schoolId=1103
p145
aVhttps://www.collegedata.com/cs/data/college/college_pg01_tmpl.jhtml?schoolId=1000
p146
aVhttps://www.collegedata.com/cs/data/college/college_pg01_tmpl.jhtml?schoolId=560
p147
aVhttps://www.collegedata.com/cs/data/college/college_pg01_tmpl.jhtml?schoolId=583
p148
aVhttps://www.collegedata.com/cs/data/college/college_pg01_tmpl.jhtml?schoolId=1004
p149
aVhttps://www.collegedata.com/cs/data/college/college_pg01_tmpl.jhtml?schoolId=806
p150
aVhttps://www.collegedata.com/cs/data/college/college_pg01_tmpl.jhtml?schoolId=941
p151
aVhttps://www.collegedata.com/cs/data/college/college_pg01_tmpl.jhtml?schoolId=368
p152
aVhttps://www.collegedata.com/cs/data/college/college_pg01_tmpl.jhtml?schoolId=1765
p153
aVhttps://www.collegedata.com/cs/data/college/college_pg01_tmpl.jhtml?schoolId=422
p154
aVhttps://www.collegedata.com/cs/data/college/college_pg01_tmpl.jhtml?schoolId=1006
p155
aVhttps://www.collegedata.com/cs/data/college/college_pg01_tmpl.jhtml?schoolId=815
p156
aVhttps://www.collegedata.com/cs/data/college/college_pg01_tmpl.jhtml?schoolId=1237
p157
aVhttps://www.collegedata.com/cs/data/college/college_pg01_tmpl.jhtml?schoolId=369
p158
aVhttps://www.collegedata.com/cs/data/college/college_pg01_tmpl.jhtml?schoolId=999
p159
aVhttps://www.collegedata.com/cs/data/college/college_pg01_tmpl.jhtml?schoolId=876
p160
aVhttps://www.collegedata.com/cs/data/college/college_pg01_tmpl.jhtml?schoolId=1001
p161
aVhttps://www.collegedata.com/cs/data/college/college_pg01_tmpl.jhtml?schoolId=805
p162
aVhttps://www.collegedata.com/cs/data/college/college_pg01_tmpl.jhtml?schoolId=3036
p163
aVhttps://www.collegedata.com/cs/data/college/college_pg01_tmpl.jhtml?schoolId=1681
p164
aVhttps://www.collegedata.com/cs/data/college/college_pg01_tmpl.jhtml?schoolId=1811
p165
aVhttps://www.collegedata.com/cs/data/college/college_pg01_tmpl.jhtml?schoolId=812
p166
aVhttps://www.collegedata.com/cs/data/college/college_pg01_tmpl.jhtml?schoolId=959
p167
aVhttps://www.collegedata.com/cs/data/college/college_pg01_tmpl.jhtml?schoolId=1761
p168
aVhttps://www.collegedata.com/cs/data/college/college_pg01_tmpl.jhtml?schoolId=370
p169
aVhttps://www.collegedata.com/cs/data/college/college_pg01_tmpl.jhtml?schoolId=848
p170
aVhttps://www.collegedata.com/cs/data/college/college_pg01_tmpl.jhtml?schoolId=810
p171
aVhttps://www.collegedata.com/cs/data/college/college_pg01_tmpl.jhtml?schoolId=3009
p172
aVhttps://www.collegedata.com/cs/data/college/college_pg01_tmpl.jhtml?schoolId=364
p173
aVhttps://www.collegedata.com/cs/data/college/college_pg01_tmpl.jhtml?schoolId=814
p174
aVhttps://www.collegedata.com/cs/data/college/college_pg01_tmpl.jhtml?schoolId=1361
p175
aVhttps://www.collegedata.com/cs/data/college/college_pg01_tmpl.jhtml?schoolId=371
p176
aVhttps://www.collegedata.com/cs/data/college/college_pg01_tmpl.jhtml?schoolId=1762
p177
aVhttps://www.collegedata.com/cs/data/college/college_pg01_tmpl.jhtml?schoolId=1788
p178
aVhttps://www.collegedata.com/cs/data/college/college_pg01_tmpl.jhtml?schoolId=372
p179
aVhttps://www.collegedata.com/cs/data/college/college_pg01_tmpl.jhtml?schoolId=1416
p180
aVhttps://www.collegedata.com/cs/data/college/college_pg01_tmpl.jhtml?schoolId=1106
p181
aVhttps://www.collegedata.com/cs/data/college/college_pg01_tmpl.jhtml?schoolId=1112
p182
aVhttps://www.collegedata.com/cs/data/college/college_pg01_tmpl.jhtml?schoolId=849
p183
aVhttps://www.collegedata.com/cs/data/college/college_pg01_tmpl.jhtml?schoolId=1763
p184
aVhttps://www.collegedata.com/cs/data/college/college_pg01_tmpl.jhtml?schoolId=938
p185
aVhttps://www.collegedata.com/cs/data/college/college_pg01_tmpl.jhtml?schoolId=977
p186
aVhttps://www.collegedata.com/cs/data/college/college_pg01_tmpl.jhtml?schoolId=1292
p187
aVhttps://www.collegedata.com/cs/data/college/college_pg01_tmpl.jhtml?schoolId=1491
p188
aVhttps://www.collegedata.com/cs/data/college/college_pg01_tmpl.jhtml?schoolId=1046
p189
aVhttps://www.collegedata.com/cs/data/college/college_pg01_tmpl.jhtml?schoolId=3004
p190
aVhttps://www.collegedata.com/cs/data/college/college_pg01_tmpl.jhtml?schoolId=1238
p191
aVhttps://www.collegedata.com/cs/data/college/college_pg01_tmpl.jhtml?schoolId=1505
p192
aVhttps://www.collegedata.com/cs/data/college/college_pg01_tmpl.jhtml?schoolId=1521
p193
aVhttps://www.collegedata.com/cs/data/college/college_pg01_tmpl.jhtml?schoolId=1222
p194
aVhttps://www.collegedata.com/cs/data/college/college_pg01_tmpl.jhtml?schoolId=809
p195
aVhttps://www.collegedata.com/cs/data/college/college_pg01_tmpl.jhtml?schoolId=1527
p196
aVhttps://www.collegedata.com/cs/data/college/college_pg01_tmpl.jhtml?schoolId=1097
p197
aVhttps://www.collegedata.com/cs/data/college/college_pg01_tmpl.jhtml?schoolId=474
p198
aVhttps://www.collegedata.com/cs/data/college/college_pg01_tmpl.jhtml?schoolId=993
p199
aVhttps://www.collegedata.com/cs/data/college/college_pg01_tmpl.jhtml?schoolId=1764
p200
aVhttps://www.collegedata.com/cs/data/college/college_pg01_tmpl.jhtml?schoolId=995
p201
aVhttps://www.collegedata.com/cs/data/college/college_pg01_tmpl.jhtml?schoolId=374
p202
aVhttps://www.collegedata.com/cs/data/college/college_pg01_tmpl.jhtml?schoolId=1408
p203
aVhttps://www.collegedata.com/cs/data/college/college_pg01_tmpl.jhtml?schoolId=899
p204
aVhttps://www.collegedata.com/cs/data/college/college_pg01_tmpl.jhtml?schoolId=845
p205
aVhttps://www.collegedata.com/cs/data/college/college_pg01_tmpl.jhtml?schoolId=375
p206
aVhttps://www.collegedata.com/cs/data/college/college_pg01_tmpl.jhtml?schoolId=1768
p207
aVhttps://www.collegedata.com/cs/data/college/college_pg01_tmpl.jhtml?schoolId=1276
p208
aVhttps://www.collegedata.com/cs/data/college/college_pg01_tmpl.jhtml?schoolId=951
p209
aVhttps://www.collegedata.com/cs/data/college/college_pg01_tmpl.jhtml?schoolId=376
p210
aVhttps://www.collegedata.com/cs/data/college/college_pg01_tmpl.jhtml?schoolId=675
p211
aVhttps://www.collegedata.com/cs/data/college/college_pg01_tmpl.jhtml?schoolId=1493
p212
aVhttps://www.collegedata.com/cs/data/college/college_pg01_tmpl.jhtml?schoolId=3060
p213
aVhttps://www.collegedata.com/cs/data/college/college_pg01_tmpl.jhtml?schoolId=3363
p214
aVhttps://www.collegedata.com/cs/data/college/college_pg01_tmpl.jhtml?schoolId=989
p215
aVhttps://www.collegedata.com/cs/data/college/college_pg01_tmpl.jhtml?schoolId=1771
p216
aVhttps://www.collegedata.com/cs/data/college/college_pg01_tmpl.jhtml?schoolId=1769
p217
aVhttps://www.collegedata.com/cs/data/college/college_pg01_tmpl.jhtml?schoolId=1298
p218
aVhttps://www.collegedata.com/cs/data/college/college_pg01_tmpl.jhtml?schoolId=1867
p219
aVhttps://www.collegedata.com/cs/data/college/college_pg01_tmpl.jhtml?schoolId=1680
p220
aVhttps://www.collegedata.com/cs/data/college/college_pg01_tmpl.jhtml?schoolId=380
p221
aVhttps://www.collegedata.com/cs/data/college/college_pg01_tmpl.jhtml?schoolId=381
p222
aVhttps://www.collegedata.com/cs/data/college/college_pg01_tmpl.jhtml?schoolId=1770
p223
aVhttps://www.collegedata.com/cs/data/college/college_pg01_tmpl.jhtml?schoolId=836
p224
aVhttps://www.collegedata.com/cs/data/college/college_pg01_tmpl.jhtml?schoolId=1773
p225
aVhttps://www.collegedata.com/cs/data/college/college_pg01_tmpl.jhtml?schoolId=1372
p226
aVhttps://www.collegedata.com/cs/data/college/college_pg01_tmpl.jhtml?schoolId=846
p227
aVhttps://www.collegedata.com/cs/data/college/college_pg01_tmpl.jhtml?schoolId=855
p228
aVhttps://www.collegedata.com/cs/data/college/college_pg01_tmpl.jhtml?schoolId=945
p229
aVhttps://www.collegedata.com/cs/data/college/college_pg01_tmpl.jhtml?schoolId=964
p230
aVhttps://www.collegedata.com/cs/data/college/college_pg01_tmpl.jhtml?schoolId=1872
p231
aVhttps://www.collegedata.com/cs/data/college/college_pg01_tmpl.jhtml?schoolId=1085
p232
aVhttps://www.collegedata.com/cs/data/college/college_pg01_tmpl.jhtml?schoolId=384
p233
aVhttps://www.collegedata.com/cs/data/college/college_pg01_tmpl.jhtml?schoolId=985
p234
aVhttps://www.collegedata.com/cs/data/college/college_pg01_tmpl.jhtml?schoolId=955
p235
aVhttps://www.collegedata.com/cs/data/college/college_pg01_tmpl.jhtml?schoolId=1688
p236
aVhttps://www.collegedata.com/cs/data/college/college_pg01_tmpl.jhtml?schoolId=820
p237
aVhttps://www.collegedata.com/cs/data/college/college_pg01_tmpl.jhtml?schoolId=837
p238
aVhttps://www.collegedata.com/cs/data/college/college_pg01_tmpl.jhtml?schoolId=1812
p239
aVhttps://www.collegedata.com/cs/data/college/college_pg01_tmpl.jhtml?schoolId=1679
p240
aVhttps://www.collegedata.com/cs/data/college/college_pg01_tmpl.jhtml?schoolId=1609
p241
aVhttps://www.collegedata.com/cs/data/college/college_pg01_tmpl.jhtml?schoolId=1803
p242
aVhttps://www.collegedata.com/cs/data/college/college_pg01_tmpl.jhtml?schoolId=388
p243
aVhttps://www.collegedata.com/cs/data/college/college_pg01_tmpl.jhtml?schoolId=389
p244
aVhttps://www.collegedata.com/cs/data/college/college_pg01_tmpl.jhtml?schoolId=390
p245
aVhttps://www.collegedata.com/cs/data/college/college_pg01_tmpl.jhtml?schoolId=1777
p246
aVhttps://www.collegedata.com/cs/data/college/college_pg01_tmpl.jhtml?schoolId=1778
p247
aVhttps://www.collegedata.com/cs/data/college/college_pg01_tmpl.jhtml?schoolId=1369
p248
aVhttps://www.collegedata.com/cs/data/college/college_pg01_tmpl.jhtml?schoolId=1008
p249
aVhttps://www.collegedata.com/cs/data/college/college_pg01_tmpl.jhtml?schoolId=1790
p250
aVhttps://www.collegedata.com/cs/data/college/college_pg01_tmpl.jhtml?schoolId=263
p251
aVhttps://www.collegedata.com/cs/data/college/college_pg01_tmpl.jhtml?schoolId=261
p252
aVhttps://www.collegedata.com/cs/data/college/college_pg01_tmpl.jhtml?schoolId=1807
p253
aVhttps://www.collegedata.com/cs/data/college/college_pg01_tmpl.jhtml?schoolId=262
p254
aVhttps://www.collegedata.com/cs/data/college/college_pg01_tmpl.jhtml?schoolId=264
p255
aVhttps://www.collegedata.com/cs/data/college/college_pg01_tmpl.jhtml?schoolId=391
p256
aVhttps://www.collegedata.com/cs/data/college/college_pg01_tmpl.jhtml?schoolId=3021
p257
aVhttps://www.collegedata.com/cs/data/college/college_pg01_tmpl.jhtml?schoolId=1878
p258
aVhttps://www.collegedata.com/cs/data/college/college_pg01_tmpl.jhtml?schoolId=1876
p259
aVhttps://www.collegedata.com/cs/data/college/college_pg01_tmpl.jhtml?schoolId=1875
p260
aVhttps://www.collegedata.com/cs/data/college/college_pg01_tmpl.jhtml?schoolId=1877
p261
aVhttps://www.collegedata.com/cs/data/college/college_pg01_tmpl.jhtml?schoolId=392
p262
aVhttps://www.collegedata.com/cs/data/college/college_pg01_tmpl.jhtml?schoolId=843
p263
aVhttps://www.collegedata.com/cs/data/college/college_pg01_tmpl.jhtml?schoolId=702
p264
aVhttps://www.collegedata.com/cs/data/college/college_pg01_tmpl.jhtml?schoolId=751
p265
aVhttps://www.collegedata.com/cs/data/college/college_pg01_tmpl.jhtml?schoolId=854
p266
aVhttps://www.collegedata.com/cs/data/college/college_pg01_tmpl.jhtml?schoolId=1675
p267
aVhttps://www.collegedata.com/cs/data/college/college_pg01_tmpl.jhtml?schoolId=906
p268
aVhttps://www.collegedata.com/cs/data/college/college_pg01_tmpl.jhtml?schoolId=1806
p269
aVhttps://www.collegedata.com/cs/data/college/college_pg01_tmpl.jhtml?schoolId=1805
p270
aVhttps://www.collegedata.com/cs/data/college/college_pg01_tmpl.jhtml?schoolId=1065
p271
aVhttps://www.collegedata.com/cs/data/college/college_pg01_tmpl.jhtml?schoolId=1785
p272
aVhttps://www.collegedata.com/cs/data/college/college_pg01_tmpl.jhtml?schoolId=1615
p273
aVhttps://www.collegedata.com/cs/data/college/college_pg01_tmpl.jhtml?schoolId=1616
p274
aVhttps://www.collegedata.com/cs/data/college/college_pg01_tmpl.jhtml?schoolId=1881
p275
aVhttps://www.collegedata.com/cs/data/college/college_pg01_tmpl.jhtml?schoolId=919
p276
aVhttps://www.collegedata.com/cs/data/college/college_pg01_tmpl.jhtml?schoolId=268
p277
aVhttps://www.collegedata.com/cs/data/college/college_pg01_tmpl.jhtml?schoolId=1218
p278
aVhttps://www.collegedata.com/cs/data/college/college_pg01_tmpl.jhtml?schoolId=1752
p279
aVhttps://www.collegedata.com/cs/data/college/college_pg01_tmpl.jhtml?schoolId=937
p280
aVhttps://www.collegedata.com/cs/data/college/college_pg01_tmpl.jhtml?schoolId=960
p281
aVhttps://www.collegedata.com/cs/data/college/college_pg01_tmpl.jhtml?schoolId=1753
p282
aVhttps://www.collegedata.com/cs/data/college/college_pg01_tmpl.jhtml?schoolId=1793
p283
aVhttps://www.collegedata.com/cs/data/college/college_pg01_tmpl.jhtml?schoolId=1796
p284
aVhttps://www.collegedata.com/cs/data/college/college_pg01_tmpl.jhtml?schoolId=1889
p285
aVhttps://www.collegedata.com/cs/data/college/college_pg01_tmpl.jhtml?schoolId=2051
p286
aVhttps://www.collegedata.com/cs/data/college/college_pg01_tmpl.jhtml?schoolId=3233
p287
aVhttps://www.collegedata.com/cs/data/college/college_pg01_tmpl.jhtml?schoolId=1357
p288
aVhttps://www.collegedata.com/cs/data/college/college_pg01_tmpl.jhtml?schoolId=731
p289
aVhttps://www.collegedata.com/cs/data/college/college_pg01_tmpl.jhtml?schoolId=816
p290
aVhttps://www.collegedata.com/cs/data/college/college_pg01_tmpl.jhtml?schoolId=1406
p291
aVhttps://www.collegedata.com/cs/data/college/college_pg01_tmpl.jhtml?schoolId=378
p292
aVhttps://www.collegedata.com/cs/data/college/college_pg01_tmpl.jhtml?schoolId=393
p293
aVhttps://www.collegedata.com/cs/data/college/college_pg01_tmpl.jhtml?schoolId=1833
p294
aVhttps://www.collegedata.com/cs/data/college/college_pg01_tmpl.jhtml?schoolId=811
p295
aVhttps://www.collegedata.com/cs/data/college/college_pg01_tmpl.jhtml?schoolId=883
p296
aVhttps://www.collegedata.com/cs/data/college/college_pg01_tmpl.jhtml?schoolId=1236
p297
aVhttps://www.collegedata.com/cs/data/college/college_pg01_tmpl.jhtml?schoolId=1362
p298
aVhttps://www.collegedata.com/cs/data/college/college_pg01_tmpl.jhtml?schoolId=1797
p299
aVhttps://www.collegedata.com/cs/data/college/college_pg01_tmpl.jhtml?schoolId=1354
p300
aVhttps://www.collegedata.com/cs/data/college/college_pg01_tmpl.jhtml?schoolId=1355
p301
aVhttps://www.collegedata.com/cs/data/college/college_pg01_tmpl.jhtml?schoolId=1636
p302
aVhttps://www.collegedata.com/cs/data/college/college_pg01_tmpl.jhtml?schoolId=396
p303
aVhttps://www.collegedata.com/cs/data/college/college_pg01_tmpl.jhtml?schoolId=830
p304
aVhttps://www.collegedata.com/cs/data/college/college_pg01_tmpl.jhtml?schoolId=398
p305
aVhttps://www.collegedata.com/cs/data/college/college_pg01_tmpl.jhtml?schoolId=952
p306
aVhttps://www.collegedata.com/cs/data/college/college_pg01_tmpl.jhtml?schoolId=460
p307
aVhttps://www.collegedata.com/cs/data/college/college_pg01_tmpl.jhtml?schoolId=283
p308
aVhttps://www.collegedata.com/cs/data/college/college_pg01_tmpl.jhtml?schoolId=1265
p309
aVhttps://www.collegedata.com/cs/data/college/college_pg01_tmpl.jhtml?schoolId=1748
p310
aVhttps://www.collegedata.com/cs/data/college/college_pg01_tmpl.jhtml?schoolId=1747
p311
aVhttps://www.collegedata.com/cs/data/college/college_pg01_tmpl.jhtml?schoolId=1648
p312
aVhttps://www.collegedata.com/cs/data/college/college_pg01_tmpl.jhtml?schoolId=696
p313
aVhttps://www.collegedata.com/cs/data/college/college_pg01_tmpl.jhtml?schoolId=856
p314
aVhttps://www.collegedata.com/cs/data/college/college_pg01_tmpl.jhtml?schoolId=1744
p315
aVhttps://www.collegedata.com/cs/data/college/college_pg01_tmpl.jhtml?schoolId=1743
p316
aVhttps://www.collegedata.com/cs/data/college/college_pg01_tmpl.jhtml?schoolId=1147
p317
aVhttps://www.collegedata.com/cs/data/college/college_pg01_tmpl.jhtml?schoolId=778
p318
aVhttps://www.collegedata.com/cs/data/college/college_pg01_tmpl.jhtml?schoolId=1087
p319
aVhttps://www.collegedata.com/cs/data/college/college_pg01_tmpl.jhtml?schoolId=1075
p320
aVhttps://www.collegedata.com/cs/data/college/college_pg01_tmpl.jhtml?schoolId=2069
p321
aVhttps://www.collegedata.com/cs/data/college/college_pg01_tmpl.jhtml?schoolId=766
p322
aVhttps://www.collegedata.com/cs/data/college/college_pg01_tmpl.jhtml?schoolId=857
p323
aVhttps://www.collegedata.com/cs/data/college/college_pg01_tmpl.jhtml?schoolId=1286
p324
aVhttps://www.collegedata.com/cs/data/college/college_pg01_tmpl.jhtml?schoolId=1384
p325
aVhttps://www.collegedata.com/cs/data/college/college_pg01_tmpl.jhtml?schoolId=773
p326
aVhttps://www.collegedata.com/cs/data/college/college_pg01_tmpl.jhtml?schoolId=785
p327
aVhttps://www.collegedata.com/cs/data/college/college_pg01_tmpl.jhtml?schoolId=3328
p328
aVhttps://www.collegedata.com/cs/data/college/college_pg01_tmpl.jhtml?schoolId=1738
p329
aVhttps://www.collegedata.com/cs/data/college/college_pg01_tmpl.jhtml?schoolId=1891
p330
aVhttps://www.collegedata.com/cs/data/college/college_pg01_tmpl.jhtml?schoolId=724
p331
aVhttps://www.collegedata.com/cs/data/college/college_pg01_tmpl.jhtml?schoolId=571
p332
aVhttps://www.collegedata.com/cs/data/college/college_pg01_tmpl.jhtml?schoolId=561
p333
aVhttps://www.collegedata.com/cs/data/college/college_pg01_tmpl.jhtml?schoolId=767
p334
aVhttps://www.collegedata.com/cs/data/college/college_pg01_tmpl.jhtml?schoolId=976
p335
aVhttps://www.collegedata.com/cs/data/college/college_pg01_tmpl.jhtml?schoolId=782
p336
aVhttps://www.collegedata.com/cs/data/college/college_pg01_tmpl.jhtml?schoolId=779
p337
aVhttps://www.collegedata.com/cs/data/college/college_pg01_tmpl.jhtml?schoolId=1135
p338
aVhttps://www.collegedata.com/cs/data/college/college_pg01_tmpl.jhtml?schoolId=1735
p339
aVhttps://www.collegedata.com/cs/data/college/college_pg01_tmpl.jhtml?schoolId=1898
p340
aVhttps://www.collegedata.com/cs/data/college/college_pg01_tmpl.jhtml?schoolId=665
p341
aVhttps://www.collegedata.com/cs/data/college/college_pg01_tmpl.jhtml?schoolId=759
p342
aVhttps://www.collegedata.com/cs/data/college/college_pg01_tmpl.jhtml?schoolId=1159
p343
aVhttps://www.collegedata.com/cs/data/college/college_pg01_tmpl.jhtml?schoolId=681
p344
aVhttps://www.collegedata.com/cs/data/college/college_pg01_tmpl.jhtml?schoolId=704
p345
aVhttps://www.collegedata.com/cs/data/college/college_pg01_tmpl.jhtml?schoolId=1257
p346
aVhttps://www.collegedata.com/cs/data/college/college_pg01_tmpl.jhtml?schoolId=688
p347
aVhttps://www.collegedata.com/cs/data/college/college_pg01_tmpl.jhtml?schoolId=1899
p348
aVhttps://www.collegedata.com/cs/data/college/college_pg01_tmpl.jhtml?schoolId=740
p349
aVhttps://www.collegedata.com/cs/data/college/college_pg01_tmpl.jhtml?schoolId=1139
p350
aVhttps://www.collegedata.com/cs/data/college/college_pg01_tmpl.jhtml?schoolId=784
p351
aVhttps://www.collegedata.com/cs/data/college/college_pg01_tmpl.jhtml?schoolId=852
p352
aVhttps://www.collegedata.com/cs/data/college/college_pg01_tmpl.jhtml?schoolId=912
p353
aVhttps://www.collegedata.com/cs/data/college/college_pg01_tmpl.jhtml?schoolId=1141
p354
aVhttps://www.collegedata.com/cs/data/college/college_pg01_tmpl.jhtml?schoolId=1948
p355
aVhttps://www.collegedata.com/cs/data/college/college_pg01_tmpl.jhtml?schoolId=1734
p356
aVhttps://www.collegedata.com/cs/data/college/college_pg01_tmpl.jhtml?schoolId=3051
p357
aVhttps://www.collegedata.com/cs/data/college/college_pg01_tmpl.jhtml?schoolId=1730
p358
aVhttps://www.collegedata.com/cs/data/college/college_pg01_tmpl.jhtml?schoolId=1732
p359
aVhttps://www.collegedata.com/cs/data/college/college_pg01_tmpl.jhtml?schoolId=3061
p360
aVhttps://www.collegedata.com/cs/data/college/college_pg01_tmpl.jhtml?schoolId=1731
p361
aVhttps://www.collegedata.com/cs/data/college/college_pg01_tmpl.jhtml?schoolId=754
p362
aVhttps://www.collegedata.com/cs/data/college/college_pg01_tmpl.jhtml?schoolId=1555
p363
aVhttps://www.collegedata.com/cs/data/college/college_pg01_tmpl.jhtml?schoolId=1224
p364
aVhttps://www.collegedata.com/cs/data/college/college_pg01_tmpl.jhtml?schoolId=297
p365
aVhttps://www.collegedata.com/cs/data/college/college_pg01_tmpl.jhtml?schoolId=479
p366
aVhttps://www.collegedata.com/cs/data/college/college_pg01_tmpl.jhtml?schoolId=615
p367
aVhttps://www.collegedata.com/cs/data/college/college_pg01_tmpl.jhtml?schoolId=480
p368
aVhttps://www.collegedata.com/cs/data/college/college_pg01_tmpl.jhtml?schoolId=481
p369
aVhttps://www.collegedata.com/cs/data/college/college_pg01_tmpl.jhtml?schoolId=482
p370
aVhttps://www.collegedata.com/cs/data/college/college_pg01_tmpl.jhtml?schoolId=3031
p371
aVhttps://www.collegedata.com/cs/data/college/college_pg01_tmpl.jhtml?schoolId=1453
p372
aVhttps://www.collegedata.com/cs/data/college/college_pg01_tmpl.jhtml?schoolId=888
p373
aVhttps://www.collegedata.com/cs/data/college/college_pg01_tmpl.jhtml?schoolId=327
p374
aVhttps://www.collegedata.com/cs/data/college/college_pg01_tmpl.jhtml?schoolId=329
p375
aVhttps://www.collegedata.com/cs/data/college/college_pg01_tmpl.jhtml?schoolId=1208
p376
aVhttps://www.collegedata.com/cs/data/college/college_pg01_tmpl.jhtml?schoolId=347
p377
aVhttps://www.collegedata.com/cs/data/college/college_pg01_tmpl.jhtml?schoolId=353
p378
aVhttps://www.collegedata.com/cs/data/college/college_pg01_tmpl.jhtml?schoolId=963
p379
aVhttps://www.collegedata.com/cs/data/college/college_pg01_tmpl.jhtml?schoolId=1782
p380
aVhttps://www.collegedata.com/cs/data/college/college_pg01_tmpl.jhtml?schoolId=758
p381
aVhttps://www.collegedata.com/cs/data/college/college_pg01_tmpl.jhtml?schoolId=1102
p382
aVhttps://www.collegedata.com/cs/data/college/college_pg01_tmpl.jhtml?schoolId=871
p383
aVhttps://www.collegedata.com/cs/data/college/college_pg01_tmpl.jhtml?schoolId=1258
p384
aVhttps://www.collegedata.com/cs/data/college/college_pg01_tmpl.jhtml?schoolId=980
p385
aVhttps://www.collegedata.com/cs/data/college/college_pg01_tmpl.jhtml?schoolId=1755
p386
aVhttps://www.collegedata.com/cs/data/college/college_pg01_tmpl.jhtml?schoolId=982
p387
aVhttps://www.collegedata.com/cs/data/college/college_pg01_tmpl.jhtml?schoolId=1751
p388
aVhttps://www.collegedata.com/cs/data/college/college_pg01_tmpl.jhtml?schoolId=1086
p389
aVhttps://www.collegedata.com/cs/data/college/college_pg01_tmpl.jhtml?schoolId=1607
p390
aVhttps://www.collegedata.com/cs/data/college/college_pg01_tmpl.jhtml?schoolId=655
p391
aVhttps://www.collegedata.com/cs/data/college/college_pg01_tmpl.jhtml?schoolId=379
p392
aVhttps://www.collegedata.com/cs/data/college/college_pg01_tmpl.jhtml?schoolId=818
p393
aVhttps://www.collegedata.com/cs/data/college/college_pg01_tmpl.jhtml?schoolId=968
p394
aVhttps://www.collegedata.com/cs/data/college/college_pg01_tmpl.jhtml?schoolId=987
p395
aVhttps://www.collegedata.com/cs/data/college/college_pg01_tmpl.jhtml?schoolId=1523
p396
aVhttps://www.collegedata.com/cs/data/college/college_pg01_tmpl.jhtml?schoolId=708
p397
aVhttps://www.collegedata.com/cs/data/college/college_pg01_tmpl.jhtml?schoolId=1774
p398
aVhttps://www.collegedata.com/cs/data/college/college_pg01_tmpl.jhtml?schoolId=748
p399
aVhttps://www.collegedata.com/cs/data/college/college_pg01_tmpl.jhtml?schoolId=3141
p400
aVhttps://www.collegedata.com/cs/data/college/college_pg01_tmpl.jhtml?schoolId=3331
p401
aVhttps://www.collegedata.com/cs/data/college/college_pg01_tmpl.jhtml?schoolId=3143
p402
aVhttps://www.collegedata.com/cs/data/college/college_pg01_tmpl.jhtml?schoolId=3160
p403
aVhttps://www.collegedata.com/cs/data/college/college_pg01_tmpl.jhtml?schoolId=1791
p404
aVhttps://www.collegedata.com/cs/data/college/college_pg01_tmpl.jhtml?schoolId=738
p405
aVhttps://www.collegedata.com/cs/data/college/college_pg01_tmpl.jhtml?schoolId=1742
p406
aVhttps://www.collegedata.com/cs/data/college/college_pg01_tmpl.jhtml?schoolId=1798
p407
aVhttps://www.collegedata.com/cs/data/college/college_pg01_tmpl.jhtml?schoolId=394
p408
aVhttps://www.collegedata.com/cs/data/college/college_pg01_tmpl.jhtml?schoolId=1676
p409
aVhttps://www.collegedata.com/cs/data/college/college_pg01_tmpl.jhtml?schoolId=879
p410
aVhttps://www.collegedata.com/cs/data/college/college_pg01_tmpl.jhtml?schoolId=1259
p411
aVhttps://www.collegedata.com/cs/data/college/college_pg01_tmpl.jhtml?schoolId=739
p412
aVhttps://www.collegedata.com/cs/data/college/college_pg01_tmpl.jhtml?schoolId=788
p413
aVhttps://www.collegedata.com/cs/data/college/college_pg01_tmpl.jhtml?schoolId=273
p414
aVhttps://www.collegedata.com/cs/data/college/college_pg01_tmpl.jhtml?schoolId=1169
p415
aVhttps://www.collegedata.com/cs/data/college/college_pg01_tmpl.jhtml?schoolId=874
p416
aVhttps://www.collegedata.com/cs/data/college/college_pg01_tmpl.jhtml?schoolId=869
p417
aVhttps://www.collegedata.com/cs/data/college/college_pg01_tmpl.jhtml?schoolId=679
p418
aVhttps://www.collegedata.com/cs/data/college/college_pg01_tmpl.jhtml?schoolId=1733
p419
aVhttps://www.collegedata.com/cs/data/college/college_pg01_tmpl.jhtml?schoolId=749
p420
aVhttps://www.collegedata.com/cs/data/college/college_pg01_tmpl.jhtml?schoolId=1706
p421
aVhttps://www.collegedata.com/cs/data/college/college_pg01_tmpl.jhtml?schoolId=1705
p422
aVhttps://www.collegedata.com/cs/data/college/college_pg01_tmpl.jhtml?schoolId=1704
p423
aVhttps://www.collegedata.com/cs/data/college/college_pg01_tmpl.jhtml?schoolId=1703
p424
aVhttps://www.collegedata.com/cs/data/college/college_pg01_tmpl.jhtml?schoolId=1702
p425
aVhttps://www.collegedata.com/cs/data/college/college_pg01_tmpl.jhtml?schoolId=1701
p426
aVhttps://www.collegedata.com/cs/data/college/college_pg01_tmpl.jhtml?schoolId=1700
p427
aVhttps://www.collegedata.com/cs/data/college/college_pg01_tmpl.jhtml?schoolId=1699
p428
aVhttps://www.collegedata.com/cs/data/college/college_pg01_tmpl.jhtml?schoolId=1698
p429
aVhttps://www.collegedata.com/cs/data/college/college_pg01_tmpl.jhtml?schoolId=1697
p430
aVhttps://www.collegedata.com/cs/data/college/college_pg01_tmpl.jhtml?schoolId=1696
p431
aVhttps://www.collegedata.com/cs/data/college/college_pg01_tmpl.jhtml?schoolId=1695
p432
aVhttps://www.collegedata.com/cs/data/college/college_pg01_tmpl.jhtml?schoolId=1694
p433
aVhttps://www.collegedata.com/cs/data/college/college_pg01_tmpl.jhtml?schoolId=881
p434
aVhttps://www.collegedata.com/cs/data/college/college_pg01_tmpl.jhtml?schoolId=1617
p435
aVhttps://www.collegedata.com/cs/data/college/college_pg01_tmpl.jhtml?schoolId=1728
p436
aVhttps://www.collegedata.com/cs/data/college/college_pg01_tmpl.jhtml?schoolId=270
p437
aVhttps://www.collegedata.com/cs/data/college/college_pg01_tmpl.jhtml?schoolId=1727
p438
aVhttps://www.collegedata.com/cs/data/college/college_pg01_tmpl.jhtml?schoolId=1726
p439
aVhttps://www.collegedata.com/cs/data/college/college_pg01_tmpl.jhtml?schoolId=1725
p440
aVhttps://www.collegedata.com/cs/data/college/college_pg01_tmpl.jhtml?schoolId=1724
p441
aVhttps://www.collegedata.com/cs/data/college/college_pg01_tmpl.jhtml?schoolId=1722
p442
aVhttps://www.collegedata.com/cs/data/college/college_pg01_tmpl.jhtml?schoolId=1723
p443
aVhttps://www.collegedata.com/cs/data/college/college_pg01_tmpl.jhtml?schoolId=777
p444
aVhttps://www.collegedata.com/cs/data/college/college_pg01_tmpl.jhtml?schoolId=1719
p445
aVhttps://www.collegedata.com/cs/data/college/college_pg01_tmpl.jhtml?schoolId=3240
p446
aVhttps://www.collegedata.com/cs/data/college/college_pg01_tmpl.jhtml?schoolId=949
p447
aVhttps://www.collegedata.com/cs/data/college/college_pg01_tmpl.jhtml?schoolId=1717
p448
aVhttps://www.collegedata.com/cs/data/college/college_pg01_tmpl.jhtml?schoolId=1716
p449
aVhttps://www.collegedata.com/cs/data/college/college_pg01_tmpl.jhtml?schoolId=1714
p450
aVhttps://www.collegedata.com/cs/data/college/college_pg01_tmpl.jhtml?schoolId=1713
p451
aVhttps://www.collegedata.com/cs/data/college/college_pg01_tmpl.jhtml?schoolId=269
p452
aVhttps://www.collegedata.com/cs/data/college/college_pg01_tmpl.jhtml?schoolId=274
p453
aVhttps://www.collegedata.com/cs/data/college/college_pg01_tmpl.jhtml?schoolId=1708
p454
aVhttps://www.collegedata.com/cs/data/college/college_pg01_tmpl.jhtml?schoolId=1266
p455
aVhttps://www.collegedata.com/cs/data/college/college_pg01_tmpl.jhtml?schoolId=1693
p456
aVhttps://www.collegedata.com/cs/data/college/college_pg01_tmpl.jhtml?schoolId=1691
p457
aVhttps://www.collegedata.com/cs/data/college/college_pg01_tmpl.jhtml?schoolId=1690
p458
aVhttps://www.collegedata.com/cs/data/college/college_pg01_tmpl.jhtml?schoolId=861
p459
aVhttps://www.collegedata.com/cs/data/college/college_pg01_tmpl.jhtml?schoolId=1417
p460
aVhttps://www.collegedata.com/cs/data/college/college_pg01_tmpl.jhtml?schoolId=1689
p461
aVhttps://www.collegedata.com/cs/data/college/college_pg01_tmpl.jhtml?schoolId=712
p462
aVhttps://www.collegedata.com/cs/data/college/college_pg01_tmpl.jhtml?schoolId=877
p463
aVhttps://www.collegedata.com/cs/data/college/college_pg01_tmpl.jhtml?schoolId=466
p464
aVhttps://www.collegedata.com/cs/data/college/college_pg01_tmpl.jhtml?schoolId=465
p465
aVhttps://www.collegedata.com/cs/data/college/college_pg01_tmpl.jhtml?schoolId=1374
p466
aVhttps://www.collegedata.com/cs/data/college/college_pg01_tmpl.jhtml?schoolId=640
p467
aVhttps://www.collegedata.com/cs/data/college/college_pg01_tmpl.jhtml?schoolId=472
p468
aVhttps://www.collegedata.com/cs/data/college/college_pg01_tmpl.jhtml?schoolId=471
p469
aVhttps://www.collegedata.com/cs/data/college/college_pg01_tmpl.jhtml?schoolId=720
p470
aVhttps://www.collegedata.com/cs/data/college/college_pg01_tmpl.jhtml?schoolId=1346
p471
aVhttps://www.collegedata.com/cs/data/college/college_pg01_tmpl.jhtml?schoolId=737
p472
aVhttps://www.collegedata.com/cs/data/college/college_pg01_tmpl.jhtml?schoolId=3183
p473
aVhttps://www.collegedata.com/cs/data/college/college_pg01_tmpl.jhtml?schoolId=1329
p474
aVhttps://www.collegedata.com/cs/data/college/college_pg01_tmpl.jhtml?schoolId=3171
p475
aVhttps://www.collegedata.com/cs/data/college/college_pg01_tmpl.jhtml?schoolId=2005
p476
aVhttps://www.collegedata.com/cs/data/college/college_pg01_tmpl.jhtml?schoolId=2006
p477
aVhttps://www.collegedata.com/cs/data/college/college_pg01_tmpl.jhtml?schoolId=1438
p478
aVhttps://www.collegedata.com/cs/data/college/college_pg01_tmpl.jhtml?schoolId=2085
p479
aVhttps://www.collegedata.com/cs/data/college/college_pg01_tmpl.jhtml?schoolId=2080
p480
aVhttps://www.collegedata.com/cs/data/college/college_pg01_tmpl.jhtml?schoolId=2086
p481
aVhttps://www.collegedata.com/cs/data/college/college_pg01_tmpl.jhtml?schoolId=2083
p482
aVhttps://www.collegedata.com/cs/data/college/college_pg01_tmpl.jhtml?schoolId=2081
p483
aVhttps://www.collegedata.com/cs/data/college/college_pg01_tmpl.jhtml?schoolId=2091
p484
aVhttps://www.collegedata.com/cs/data/college/college_pg01_tmpl.jhtml?schoolId=2074
p485
aVhttps://www.collegedata.com/cs/data/college/college_pg01_tmpl.jhtml?schoolId=2087
p486
aVhttps://www.collegedata.com/cs/data/college/college_pg01_tmpl.jhtml?schoolId=2084
p487
aVhttps://www.collegedata.com/cs/data/college/college_pg01_tmpl.jhtml?schoolId=2076
p488
aVhttps://www.collegedata.com/cs/data/college/college_pg01_tmpl.jhtml?schoolId=2078
p489
aVhttps://www.collegedata.com/cs/data/college/college_pg01_tmpl.jhtml?schoolId=1376
p490
aVhttps://www.collegedata.com/cs/data/college/college_pg01_tmpl.jhtml?schoolId=1096
p491
aVhttps://www.collegedata.com/cs/data/college/college_pg01_tmpl.jhtml?schoolId=632
p492
aVhttps://www.collegedata.com/cs/data/college/college_pg01_tmpl.jhtml?schoolId=2014
p493
aVhttps://www.collegedata.com/cs/data/college/college_pg01_tmpl.jhtml?schoolId=2064
p494
aVhttps://www.collegedata.com/cs/data/college/college_pg01_tmpl.jhtml?schoolId=604
p495
aVhttps://www.collegedata.com/cs/data/college/college_pg01_tmpl.jhtml?schoolId=2066
p496
aVhttps://www.collegedata.com/cs/data/college/college_pg01_tmpl.jhtml?schoolId=543
p497
aVhttps://www.collegedata.com/cs/data/college/college_pg01_tmpl.jhtml?schoolId=548
p498
aVhttps://www.collegedata.com/cs/data/college/college_pg01_tmpl.jhtml?schoolId=3012
p499
aVhttps://www.collegedata.com/cs/data/college/college_pg01_tmpl.jhtml?schoolId=1819
p500
aVhttps://www.collegedata.com/cs/data/college/college_pg01_tmpl.jhtml?schoolId=1271
p501
aVhttps://www.collegedata.com/cs/data/college/college_pg01_tmpl.jhtml?schoolId=3252
p502
aVhttps://www.collegedata.com/cs/data/college/college_pg01_tmpl.jhtml?schoolId=3055
p503
aVhttps://www.collegedata.com/cs/data/college/college_pg01_tmpl.jhtml?schoolId=484
p504
aVhttps://www.collegedata.com/cs/data/college/college_pg01_tmpl.jhtml?schoolId=992
p505
aVhttps://www.collegedata.com/cs/data/college/college_pg01_tmpl.jhtml?schoolId=3090
p506
aVhttps://www.collegedata.com/cs/data/college/college_pg01_tmpl.jhtml?schoolId=1230
p507
aVhttps://www.collegedata.com/cs/data/college/college_pg01_tmpl.jhtml?schoolId=488
p508
aVhttps://www.collegedata.com/cs/data/college/college_pg01_tmpl.jhtml?schoolId=489
p509
aVhttps://www.collegedata.com/cs/data/college/college_pg01_tmpl.jhtml?schoolId=491
p510
aVhttps://www.collegedata.com/cs/data/college/college_pg01_tmpl.jhtml?schoolId=662
p511
aVhttps://www.collegedata.com/cs/data/college/college_pg01_tmpl.jhtml?schoolId=3083
p512
aVhttps://www.collegedata.com/cs/data/college/college_pg01_tmpl.jhtml?schoolId=1390
p513
aVhttps://www.collegedata.com/cs/data/college/college_pg01_tmpl.jhtml?schoolId=3259
p514
aVhttps://www.collegedata.com/cs/data/college/college_pg01_tmpl.jhtml?schoolId=496
p515
aVhttps://www.collegedata.com/cs/data/college/college_pg01_tmpl.jhtml?schoolId=497
p516
aVhttps://www.collegedata.com/cs/data/college/college_pg01_tmpl.jhtml?schoolId=499
p517
aVhttps://www.collegedata.com/cs/data/college/college_pg01_tmpl.jhtml?schoolId=502
p518
aVhttps://www.collegedata.com/cs/data/college/college_pg01_tmpl.jhtml?schoolId=3205
p519
aVhttps://www.collegedata.com/cs/data/college/college_pg01_tmpl.jhtml?schoolId=505
p520
aVhttps://www.collegedata.com/cs/data/college/college_pg01_tmpl.jhtml?schoolId=1926
p521
aVhttps://www.collegedata.com/cs/data/college/college_pg01_tmpl.jhtml?schoolId=3256
p522
aVhttps://www.collegedata.com/cs/data/college/college_pg01_tmpl.jhtml?schoolId=680
p523
aVhttps://www.collegedata.com/cs/data/college/college_pg01_tmpl.jhtml?schoolId=507
p524
aVhttps://www.collegedata.com/cs/data/college/college_pg01_tmpl.jhtml?schoolId=508
p525
aVhttps://www.collegedata.com/cs/data/college/college_pg01_tmpl.jhtml?schoolId=1395
p526
aVhttps://www.collegedata.com/cs/data/college/college_pg01_tmpl.jhtml?schoolId=1082
p527
aVhttps://www.collegedata.com/cs/data/college/college_pg01_tmpl.jhtml?schoolId=3355
p528
aVhttps://www.collegedata.com/cs/data/college/college_pg01_tmpl.jhtml?schoolId=514
p529
aVhttps://www.collegedata.com/cs/data/college/college_pg01_tmpl.jhtml?schoolId=1069
p530
aVhttps://www.collegedata.com/cs/data/college/college_pg01_tmpl.jhtml?schoolId=983
p531
aVhttps://www.collegedata.com/cs/data/college/college_pg01_tmpl.jhtml?schoolId=3044
p532
aVhttps://www.collegedata.com/cs/data/college/college_pg01_tmpl.jhtml?schoolId=515
p533
aVhttps://www.collegedata.com/cs/data/college/college_pg01_tmpl.jhtml?schoolId=1179
p534
aVhttps://www.collegedata.com/cs/data/college/college_pg01_tmpl.jhtml?schoolId=3098
p535
aVhttps://www.collegedata.com/cs/data/college/college_pg01_tmpl.jhtml?schoolId=3091
p536
aVhttps://www.collegedata.com/cs/data/college/college_pg01_tmpl.jhtml?schoolId=3085
p537
aVhttps://www.collegedata.com/cs/data/college/college_pg01_tmpl.jhtml?schoolId=984
p538
aVhttps://www.collegedata.com/cs/data/college/college_pg01_tmpl.jhtml?schoolId=3172
p539
aVhttps://www.collegedata.com/cs/data/college/college_pg01_tmpl.jhtml?schoolId=706
p540
aVhttps://www.collegedata.com/cs/data/college/college_pg01_tmpl.jhtml?schoolId=1068
p541
aVhttps://www.collegedata.com/cs/data/college/college_pg01_tmpl.jhtml?schoolId=932
p542
aVhttps://www.collegedata.com/cs/data/college/college_pg01_tmpl.jhtml?schoolId=656
p543
aVhttps://www.collegedata.com/cs/data/college/college_pg01_tmpl.jhtml?schoolId=2088
p544
aVhttps://www.collegedata.com/cs/data/college/college_pg01_tmpl.jhtml?schoolId=666
p545
aVhttps://www.collegedata.com/cs/data/college/college_pg01_tmpl.jhtml?schoolId=1078
p546
aVhttps://www.collegedata.com/cs/data/college/college_pg01_tmpl.jhtml?schoolId=868
p547
aVhttps://www.collegedata.com/cs/data/college/college_pg01_tmpl.jhtml?schoolId=2004
p548
aVhttps://www.collegedata.com/cs/data/college/college_pg01_tmpl.jhtml?schoolId=1083
p549
aVhttps://www.collegedata.com/cs/data/college/college_pg01_tmpl.jhtml?schoolId=969
p550
aVhttps://www.collegedata.com/cs/data/college/college_pg01_tmpl.jhtml?schoolId=654
p551
aVhttps://www.collegedata.com/cs/data/college/college_pg01_tmpl.jhtml?schoolId=842
p552
aVhttps://www.collegedata.com/cs/data/college/college_pg01_tmpl.jhtml?schoolId=1685
p553
aVhttps://www.collegedata.com/cs/data/college/college_pg01_tmpl.jhtml?schoolId=259
p554
aVhttps://www.collegedata.com/cs/data/college/college_pg01_tmpl.jhtml?schoolId=1080
p555
aVhttps://www.collegedata.com/cs/data/college/college_pg01_tmpl.jhtml?schoolId=1829
p556
aVhttps://www.collegedata.com/cs/data/college/college_pg01_tmpl.jhtml?schoolId=903
p557
aVhttps://www.collegedata.com/cs/data/college/college_pg01_tmpl.jhtml?schoolId=625
p558
aVhttps://www.collegedata.com/cs/data/college/college_pg01_tmpl.jhtml?schoolId=1076
p559
aVhttps://www.collegedata.com/cs/data/college/college_pg01_tmpl.jhtml?schoolId=1308
p560
aVhttps://www.collegedata.com/cs/data/college/college_pg01_tmpl.jhtml?schoolId=1073
p561
aVhttps://www.collegedata.com/cs/data/college/college_pg01_tmpl.jhtml?schoolId=3206
p562
aVhttps://www.collegedata.com/cs/data/college/college_pg01_tmpl.jhtml?schoolId=1446
p563
aVhttps://www.collegedata.com/cs/data/college/college_pg01_tmpl.jhtml?schoolId=1195
p564
aVhttps://www.collegedata.com/cs/data/college/college_pg01_tmpl.jhtml?schoolId=1448
p565
aVhttps://www.collegedata.com/cs/data/college/college_pg01_tmpl.jhtml?schoolId=929
p566
aVhttps://www.collegedata.com/cs/data/college/college_pg01_tmpl.jhtml?schoolId=1456
p567
aVhttps://www.collegedata.com/cs/data/college/college_pg01_tmpl.jhtml?schoolId=2099
p568
aVhttps://www.collegedata.com/cs/data/college/college_pg01_tmpl.jhtml?schoolId=636
p569
aVhttps://www.collegedata.com/cs/data/college/college_pg01_tmpl.jhtml?schoolId=661
p570
aVhttps://www.collegedata.com/cs/data/college/college_pg01_tmpl.jhtml?schoolId=531
p571
aVhttps://www.collegedata.com/cs/data/college/college_pg01_tmpl.jhtml?schoolId=3255
p572
aVhttps://www.collegedata.com/cs/data/college/college_pg01_tmpl.jhtml?schoolId=1459
p573
aVhttps://www.collegedata.com/cs/data/college/college_pg01_tmpl.jhtml?schoolId=1260
p574
aVhttps://www.collegedata.com/cs/data/college/college_pg01_tmpl.jhtml?schoolId=716
p575
aVhttps://www.collegedata.com/cs/data/college/college_pg01_tmpl.jhtml?schoolId=1335
p576
aVhttps://www.collegedata.com/cs/data/college/college_pg01_tmpl.jhtml?schoolId=734
p577
aVhttps://www.collegedata.com/cs/data/college/college_pg01_tmpl.jhtml?schoolId=539
p578
aVhttps://www.collegedata.com/cs/data/college/college_pg01_tmpl.jhtml?schoolId=668
p579
aVhttps://www.collegedata.com/cs/data/college/college_pg01_tmpl.jhtml?schoolId=3345
p580
aVhttps://www.collegedata.com/cs/data/college/college_pg01_tmpl.jhtml?schoolId=3180
p581
aVhttps://www.collegedata.com/cs/data/college/college_pg01_tmpl.jhtml?schoolId=822
p582
aVhttps://www.collegedata.com/cs/data/college/college_pg01_tmpl.jhtml?schoolId=669
p583
aVhttps://www.collegedata.com/cs/data/college/college_pg01_tmpl.jhtml?schoolId=1108
p584
aVhttps://www.collegedata.com/cs/data/college/college_pg01_tmpl.jhtml?schoolId=634
p585
aVhttps://www.collegedata.com/cs/data/college/college_pg01_tmpl.jhtml?schoolId=747
p586
aVhttps://www.collegedata.com/cs/data/college/college_pg01_tmpl.jhtml?schoolId=1144
p587
aVhttps://www.collegedata.com/cs/data/college/college_pg01_tmpl.jhtml?schoolId=670
p588
aVhttps://www.collegedata.com/cs/data/college/college_pg01_tmpl.jhtml?schoolId=546
p589
aVhttps://www.collegedata.com/cs/data/college/college_pg01_tmpl.jhtml?schoolId=1942
p590
aVhttps://www.collegedata.com/cs/data/college/college_pg01_tmpl.jhtml?schoolId=1312
p591
aVhttps://www.collegedata.com/cs/data/college/college_pg01_tmpl.jhtml?schoolId=1160
p592
aVhttps://www.collegedata.com/cs/data/college/college_pg01_tmpl.jhtml?schoolId=690
p593
aVhttps://www.collegedata.com/cs/data/college/college_pg01_tmpl.jhtml?schoolId=939
p594
aVhttps://www.collegedata.com/cs/data/college/college_pg01_tmpl.jhtml?schoolId=908
p595
aVhttps://www.collegedata.com/cs/data/college/college_pg01_tmpl.jhtml?schoolId=1221
p596
aVhttps://www.collegedata.com/cs/data/college/college_pg01_tmpl.jhtml?schoolId=697
p597
aVhttps://www.collegedata.com/cs/data/college/college_pg01_tmpl.jhtml?schoolId=698
p598
aVhttps://www.collegedata.com/cs/data/college/college_pg01_tmpl.jhtml?schoolId=1918
p599
aVhttps://www.collegedata.com/cs/data/college/college_pg01_tmpl.jhtml?schoolId=1670
p600
aVhttps://www.collegedata.com/cs/data/college/college_pg01_tmpl.jhtml?schoolId=2093
p601
aVhttps://www.collegedata.com/cs/data/college/college_pg01_tmpl.jhtml?schoolId=1319
p602
aVhttps://www.collegedata.com/cs/data/college/college_pg01_tmpl.jhtml?schoolId=3062
p603
aVhttps://www.collegedata.com/cs/data/college/college_pg01_tmpl.jhtml?schoolId=593
p604
aVhttps://www.collegedata.com/cs/data/college/college_pg01_tmpl.jhtml?schoolId=875
p605
aVhttps://www.collegedata.com/cs/data/college/college_pg01_tmpl.jhtml?schoolId=3053
p606
aVhttps://www.collegedata.com/cs/data/college/college_pg01_tmpl.jhtml?schoolId=915
p607
aVhttps://www.collegedata.com/cs/data/college/college_pg01_tmpl.jhtml?schoolId=944
p608
aVhttps://www.collegedata.com/cs/data/college/college_pg01_tmpl.jhtml?schoolId=642
p609
aVhttps://www.collegedata.com/cs/data/college/college_pg01_tmpl.jhtml?schoolId=644
p610
aVhttps://www.collegedata.com/cs/data/college/college_pg01_tmpl.jhtml?schoolId=1161
p611
aVhttps://www.collegedata.com/cs/data/college/college_pg01_tmpl.jhtml?schoolId=648
p612
aVhttps://www.collegedata.com/cs/data/college/college_pg01_tmpl.jhtml?schoolId=692
p613
aVhttps://www.collegedata.com/cs/data/college/college_pg01_tmpl.jhtml?schoolId=2094
p614
aVhttps://www.collegedata.com/cs/data/college/college_pg01_tmpl.jhtml?schoolId=1031
p615
aVhttps://www.collegedata.com/cs/data/college/college_pg01_tmpl.jhtml?schoolId=1205
p616
aVhttps://www.collegedata.com/cs/data/college/college_pg01_tmpl.jhtml?schoolId=645
p617
aVhttps://www.collegedata.com/cs/data/college/college_pg01_tmpl.jhtml?schoolId=1043
p618
aVhttps://www.collegedata.com/cs/data/college/college_pg01_tmpl.jhtml?schoolId=1162
p619
aVhttps://www.collegedata.com/cs/data/college/college_pg01_tmpl.jhtml?schoolId=931
p620
aVhttps://www.collegedata.com/cs/data/college/college_pg01_tmpl.jhtml?schoolId=878
p621
aVhttps://www.collegedata.com/cs/data/college/college_pg01_tmpl.jhtml?schoolId=1157
p622
aVhttps://www.collegedata.com/cs/data/college/college_pg01_tmpl.jhtml?schoolId=732
p623
aVhttps://www.collegedata.com/cs/data/college/college_pg01_tmpl.jhtml?schoolId=657
p624
aVhttps://www.collegedata.com/cs/data/college/college_pg01_tmpl.jhtml?schoolId=3270
p625
aVhttps://www.collegedata.com/cs/data/college/college_pg01_tmpl.jhtml?schoolId=2021
p626
aVhttps://www.collegedata.com/cs/data/college/college_pg01_tmpl.jhtml?schoolId=3054
p627
aVhttps://www.collegedata.com/cs/data/college/college_pg01_tmpl.jhtml?schoolId=850
p628
aVhttps://www.collegedata.com/cs/data/college/college_pg01_tmpl.jhtml?schoolId=652
p629
aVhttps://www.collegedata.com/cs/data/college/college_pg01_tmpl.jhtml?schoolId=1328
p630
aVhttps://www.collegedata.com/cs/data/college/college_pg01_tmpl.jhtml?schoolId=284
p631
aVhttps://www.collegedata.com/cs/data/college/college_pg01_tmpl.jhtml?schoolId=3271
p632
aVhttps://www.collegedata.com/cs/data/college/college_pg01_tmpl.jhtml?schoolId=713
p633
aVhttps://www.collegedata.com/cs/data/college/college_pg01_tmpl.jhtml?schoolId=1113
p634
aVhttps://www.collegedata.com/cs/data/college/college_pg01_tmpl.jhtml?schoolId=3274
p635
aVhttps://www.collegedata.com/cs/data/college/college_pg01_tmpl.jhtml?schoolId=663
p636
aVhttps://www.collegedata.com/cs/data/college/college_pg01_tmpl.jhtml?schoolId=1267
p637
aVhttps://www.collegedata.com/cs/data/college/college_pg01_tmpl.jhtml?schoolId=1483
p638
aVhttps://www.collegedata.com/cs/data/college/college_pg01_tmpl.jhtml?schoolId=3341
p639
aVhttps://www.collegedata.com/cs/data/college/college_pg01_tmpl.jhtml?schoolId=1099
p640
aVhttps://www.collegedata.com/cs/data/college/college_pg01_tmpl.jhtml?schoolId=1828
p641
aVhttps://www.collegedata.com/cs/data/college/college_pg01_tmpl.jhtml?schoolId=3275
p642
aVhttps://www.collegedata.com/cs/data/college/college_pg01_tmpl.jhtml?schoolId=1439
p643
aVhttps://www.collegedata.com/cs/data/college/college_pg01_tmpl.jhtml?schoolId=2013
p644
aVhttps://www.collegedata.com/cs/data/college/college_pg01_tmpl.jhtml?schoolId=1048
p645
aVhttps://www.collegedata.com/cs/data/college/college_pg01_tmpl.jhtml?schoolId=1810
p646
aVhttps://www.collegedata.com/cs/data/college/college_pg01_tmpl.jhtml?schoolId=1107
p647
aVhttps://www.collegedata.com/cs/data/college/college_pg01_tmpl.jhtml?schoolId=3223
p648
aVhttps://www.collegedata.com/cs/data/college/college_pg01_tmpl.jhtml?schoolId=594
p649
aVhttps://www.collegedata.com/cs/data/college/college_pg01_tmpl.jhtml?schoolId=1499
p650
aVhttps://www.collegedata.com/cs/data/college/college_pg01_tmpl.jhtml?schoolId=1215
p651
aVhttps://www.collegedata.com/cs/data/college/college_pg01_tmpl.jhtml?schoolId=1154
p652
aVhttps://www.collegedata.com/cs/data/college/college_pg01_tmpl.jhtml?schoolId=1336
p653
aVhttps://www.collegedata.com/cs/data/college/college_pg01_tmpl.jhtml?schoolId=1050
p654
aVhttps://www.collegedata.com/cs/data/college/college_pg01_tmpl.jhtml?schoolId=1484
p655
aVhttps://www.collegedata.com/cs/data/college/college_pg01_tmpl.jhtml?schoolId=1485
p656
aVhttps://www.collegedata.com/cs/data/college/college_pg01_tmpl.jhtml?schoolId=889
p657
aVhttps://www.collegedata.com/cs/data/college/college_pg01_tmpl.jhtml?schoolId=545
p658
aVhttps://www.collegedata.com/cs/data/college/college_pg01_tmpl.jhtml?schoolId=1051
p659
aVhttps://www.collegedata.com/cs/data/college/college_pg01_tmpl.jhtml?schoolId=1488
p660
aVhttps://www.collegedata.com/cs/data/college/college_pg01_tmpl.jhtml?schoolId=1487
p661
aVhttps://www.collegedata.com/cs/data/college/college_pg01_tmpl.jhtml?schoolId=1193
p662
aVhttps://www.collegedata.com/cs/data/college/college_pg01_tmpl.jhtml?schoolId=897
p663
aVhttps://www.collegedata.com/cs/data/college/college_pg01_tmpl.jhtml?schoolId=1289
p664
aVhttps://www.collegedata.com/cs/data/college/college_pg01_tmpl.jhtml?schoolId=1528
p665
aVhttps://www.collegedata.com/cs/data/college/college_pg01_tmpl.jhtml?schoolId=1290
p666
aVhttps://www.collegedata.com/cs/data/college/college_pg01_tmpl.jhtml?schoolId=281
p667
aVhttps://www.collegedata.com/cs/data/college/college_pg01_tmpl.jhtml?schoolId=726
p668
aVhttps://www.collegedata.com/cs/data/college/college_pg01_tmpl.jhtml?schoolId=1473
p669
aVhttps://www.collegedata.com/cs/data/college/college_pg01_tmpl.jhtml?schoolId=1226
p670
aVhttps://www.collegedata.com/cs/data/college/college_pg01_tmpl.jhtml?schoolId=753
p671
aVhttps://www.collegedata.com/cs/data/college/college_pg01_tmpl.jhtml?schoolId=1347
p672
aVhttps://www.collegedata.com/cs/data/college/college_pg01_tmpl.jhtml?schoolId=672
p673
aVhttps://www.collegedata.com/cs/data/college/college_pg01_tmpl.jhtml?schoolId=3348
p674
aVhttps://www.collegedata.com/cs/data/college/college_pg01_tmpl.jhtml?schoolId=1060
p675
aVhttps://www.collegedata.com/cs/data/college/college_pg01_tmpl.jhtml?schoolId=862
p676
aVhttps://www.collegedata.com/cs/data/college/college_pg01_tmpl.jhtml?schoolId=858
p677
aVhttps://www.collegedata.com/cs/data/college/college_pg01_tmpl.jhtml?schoolId=687
p678
aVhttps://www.collegedata.com/cs/data/college/college_pg01_tmpl.jhtml?schoolId=844
p679
aVhttps://www.collegedata.com/cs/data/college/college_pg01_tmpl.jhtml?schoolId=1533
p680
aVhttps://www.collegedata.com/cs/data/college/college_pg01_tmpl.jhtml?schoolId=1261
p681
aVhttps://www.collegedata.com/cs/data/college/college_pg01_tmpl.jhtml?schoolId=1501
p682
aVhttps://www.collegedata.com/cs/data/college/college_pg01_tmpl.jhtml?schoolId=1056
p683
aVhttps://www.collegedata.com/cs/data/college/college_pg01_tmpl.jhtml?schoolId=1115
p684
aVhttps://www.collegedata.com/cs/data/college/college_pg01_tmpl.jhtml?schoolId=1058
p685
aVhttps://www.collegedata.com/cs/data/college/college_pg01_tmpl.jhtml?schoolId=1062
p686
aVhttps://www.collegedata.com/cs/data/college/college_pg01_tmpl.jhtml?schoolId=1534
p687
aVhttps://www.collegedata.com/cs/data/college/college_pg01_tmpl.jhtml?schoolId=972
p688
aVhttps://www.collegedata.com/cs/data/college/college_pg01_tmpl.jhtml?schoolId=1057
p689
aVhttps://www.collegedata.com/cs/data/college/college_pg01_tmpl.jhtml?schoolId=3226
p690
aVhttps://www.collegedata.com/cs/data/college/college_pg01_tmpl.jhtml?schoolId=651
p691
aVhttps://www.collegedata.com/cs/data/college/college_pg01_tmpl.jhtml?schoolId=641
p692
aVhttps://www.collegedata.com/cs/data/college/college_pg01_tmpl.jhtml?schoolId=1123
p693
aVhttps://www.collegedata.com/cs/data/college/college_pg01_tmpl.jhtml?schoolId=684
p694
aVhttps://www.collegedata.com/cs/data/college/college_pg01_tmpl.jhtml?schoolId=1530
p695
aVhttps://www.collegedata.com/cs/data/college/college_pg01_tmpl.jhtml?schoolId=1869
p696
aVhttps://www.collegedata.com/cs/data/college/college_pg01_tmpl.jhtml?schoolId=1117
p697
aVhttps://www.collegedata.com/cs/data/college/college_pg01_tmpl.jhtml?schoolId=520
p698
aVhttps://www.collegedata.com/cs/data/college/college_pg01_tmpl.jhtml?schoolId=1684
p699
aVhttps://www.collegedata.com/cs/data/college/college_pg01_tmpl.jhtml?schoolId=1194
p700
aVhttps://www.collegedata.com/cs/data/college/college_pg01_tmpl.jhtml?schoolId=1381
p701
aVhttps://www.collegedata.com/cs/data/college/college_pg01_tmpl.jhtml?schoolId=1871
p702
aVhttps://www.collegedata.com/cs/data/college/college_pg01_tmpl.jhtml?schoolId=3227
p703
aVhttps://www.collegedata.com/cs/data/college/college_pg01_tmpl.jhtml?schoolId=1119
p704
aVhttps://www.collegedata.com/cs/data/college/college_pg01_tmpl.jhtml?schoolId=1952
p705
aVhttps://www.collegedata.com/cs/data/college/college_pg01_tmpl.jhtml?schoolId=3096
p706
aVhttps://www.collegedata.com/cs/data/college/college_pg01_tmpl.jhtml?schoolId=1927
p707
aVhttps://www.collegedata.com/cs/data/college/college_pg01_tmpl.jhtml?schoolId=1385
p708
aVhttps://www.collegedata.com/cs/data/college/college_pg01_tmpl.jhtml?schoolId=761
p709
aVhttps://www.collegedata.com/cs/data/college/college_pg01_tmpl.jhtml?schoolId=921
p710
aVhttps://www.collegedata.com/cs/data/college/college_pg01_tmpl.jhtml?schoolId=1094
p711
aVhttps://www.collegedata.com/cs/data/college/college_pg01_tmpl.jhtml?schoolId=2015
p712
aVhttps://www.collegedata.com/cs/data/college/college_pg01_tmpl.jhtml?schoolId=550
p713
aVhttps://www.collegedata.com/cs/data/college/college_pg01_tmpl.jhtml?schoolId=1932
p714
aVhttps://www.collegedata.com/cs/data/college/college_pg01_tmpl.jhtml?schoolId=1114
p715
aVhttps://www.collegedata.com/cs/data/college/college_pg01_tmpl.jhtml?schoolId=1608
p716
aVhttps://www.collegedata.com/cs/data/college/college_pg01_tmpl.jhtml?schoolId=3230
p717
aVhttps://www.collegedata.com/cs/data/college/college_pg01_tmpl.jhtml?schoolId=689
p718
aVhttps://www.collegedata.com/cs/data/college/college_pg01_tmpl.jhtml?schoolId=575
p719
aVhttps://www.collegedata.com/cs/data/college/college_pg01_tmpl.jhtml?schoolId=1126
p720
aVhttps://www.collegedata.com/cs/data/college/college_pg01_tmpl.jhtml?schoolId=900
p721
aVhttps://www.collegedata.com/cs/data/college/college_pg01_tmpl.jhtml?schoolId=576
p722
aVhttps://www.collegedata.com/cs/data/college/college_pg01_tmpl.jhtml?schoolId=917
p723
aVhttps://www.collegedata.com/cs/data/college/college_pg01_tmpl.jhtml?schoolId=1311
p724
aVhttps://www.collegedata.com/cs/data/college/college_pg01_tmpl.jhtml?schoolId=1612
p725
aVhttps://www.collegedata.com/cs/data/college/college_pg01_tmpl.jhtml?schoolId=1129
p726
aVhttps://www.collegedata.com/cs/data/college/college_pg01_tmpl.jhtml?schoolId=1880
p727
aVhttps://www.collegedata.com/cs/data/college/college_pg01_tmpl.jhtml?schoolId=1251
p728
aVhttps://www.collegedata.com/cs/data/college/college_pg01_tmpl.jhtml?schoolId=717
p729
aVhttps://www.collegedata.com/cs/data/college/college_pg01_tmpl.jhtml?schoolId=926
p730
aVhttps://www.collegedata.com/cs/data/college/college_pg01_tmpl.jhtml?schoolId=727
p731
aVhttps://www.collegedata.com/cs/data/college/college_pg01_tmpl.jhtml?schoolId=1678
p732
aVhttps://www.collegedata.com/cs/data/college/college_pg01_tmpl.jhtml?schoolId=870
p733
aVhttps://www.collegedata.com/cs/data/college/college_pg01_tmpl.jhtml?schoolId=290
p734
aVhttps://www.collegedata.com/cs/data/college/college_pg01_tmpl.jhtml?schoolId=551
p735
aVhttps://www.collegedata.com/cs/data/college/college_pg01_tmpl.jhtml?schoolId=1127
p736
aVhttps://www.collegedata.com/cs/data/college/college_pg01_tmpl.jhtml?schoolId=756
p737
aVhttps://www.collegedata.com/cs/data/college/college_pg01_tmpl.jhtml?schoolId=760
p738
aVhttps://www.collegedata.com/cs/data/college/college_pg01_tmpl.jhtml?schoolId=1121
p739
aVhttps://www.collegedata.com/cs/data/college/college_pg01_tmpl.jhtml?schoolId=1128
p740
aVhttps://www.collegedata.com/cs/data/college/college_pg01_tmpl.jhtml?schoolId=542
p741
aVhttps://www.collegedata.com/cs/data/college/college_pg01_tmpl.jhtml?schoolId=3325
p742
aVhttps://www.collegedata.com/cs/data/college/college_pg01_tmpl.jhtml?schoolId=3048
p743
aVhttps://www.collegedata.com/cs/data/college/college_pg01_tmpl.jhtml?schoolId=752
p744
aVhttps://www.collegedata.com/cs/data/college/college_pg01_tmpl.jhtml?schoolId=1677
p745
aVhttps://www.collegedata.com/cs/data/college/college_pg01_tmpl.jhtml?schoolId=933
p746
aVhttps://www.collegedata.com/cs/data/college/college_pg01_tmpl.jhtml?schoolId=718
p747
aVhttps://www.collegedata.com/cs/data/college/college_pg01_tmpl.jhtml?schoolId=3349
p748
aVhttps://www.collegedata.com/cs/data/college/college_pg01_tmpl.jhtml?schoolId=765
p749
aVhttps://www.collegedata.com/cs/data/college/college_pg01_tmpl.jhtml?schoolId=694
p750
aVhttps://www.collegedata.com/cs/data/college/college_pg01_tmpl.jhtml?schoolId=1629
p751
aVhttps://www.collegedata.com/cs/data/college/college_pg01_tmpl.jhtml?schoolId=695
p752
aVhttps://www.collegedata.com/cs/data/college/college_pg01_tmpl.jhtml?schoolId=553
p753
aVhttps://www.collegedata.com/cs/data/college/college_pg01_tmpl.jhtml?schoolId=1628
p754
aVhttps://www.collegedata.com/cs/data/college/college_pg01_tmpl.jhtml?schoolId=2016
p755
aVhttps://www.collegedata.com/cs/data/college/college_pg01_tmpl.jhtml?schoolId=1674
p756
aVhttps://www.collegedata.com/cs/data/college/college_pg01_tmpl.jhtml?schoolId=1167
p757
aVhttps://www.collegedata.com/cs/data/college/college_pg01_tmpl.jhtml?schoolId=1398
p758
aVhttps://www.collegedata.com/cs/data/college/college_pg01_tmpl.jhtml?schoolId=1641
p759
aVhttps://www.collegedata.com/cs/data/college/college_pg01_tmpl.jhtml?schoolId=1133
p760
aVhttps://www.collegedata.com/cs/data/college/college_pg01_tmpl.jhtml?schoolId=923
p761
aVhttps://www.collegedata.com/cs/data/college/college_pg01_tmpl.jhtml?schoolId=956
p762
aVhttps://www.collegedata.com/cs/data/college/college_pg01_tmpl.jhtml?schoolId=1130
p763
aVhttps://www.collegedata.com/cs/data/college/college_pg01_tmpl.jhtml?schoolId=709
p764
aVhttps://www.collegedata.com/cs/data/college/college_pg01_tmpl.jhtml?schoolId=775
p765
aVhttps://www.collegedata.com/cs/data/college/college_pg01_tmpl.jhtml?schoolId=768
p766
aVhttps://www.collegedata.com/cs/data/college/college_pg01_tmpl.jhtml?schoolId=776
p767
aVhttps://www.collegedata.com/cs/data/college/college_pg01_tmpl.jhtml?schoolId=770
p768
aVhttps://www.collegedata.com/cs/data/college/college_pg01_tmpl.jhtml?schoolId=1132
p769
aVhttps://www.collegedata.com/cs/data/college/college_pg01_tmpl.jhtml?schoolId=772
p770
aVhttps://www.collegedata.com/cs/data/college/college_pg01_tmpl.jhtml?schoolId=3184
p771
aVhttps://www.collegedata.com/cs/data/college/college_pg01_tmpl.jhtml?schoolId=1667
p772
aVhttps://www.collegedata.com/cs/data/college/college_pg01_tmpl.jhtml?schoolId=584
p773
aVhttps://www.collegedata.com/cs/data/college/college_pg01_tmpl.jhtml?schoolId=769
p774
aVhttps://www.collegedata.com/cs/data/college/college_pg01_tmpl.jhtml?schoolId=3094
p775
aVhttps://www.collegedata.com/cs/data/college/college_pg01_tmpl.jhtml?schoolId=725
p776
aVhttps://www.collegedata.com/cs/data/college/college_pg01_tmpl.jhtml?schoolId=1961
p777
aVhttps://www.collegedata.com/cs/data/college/college_pg01_tmpl.jhtml?schoolId=802
p778
aVhttps://www.collegedata.com/cs/data/college/college_pg01_tmpl.jhtml?schoolId=3032
p779
aVhttps://www.collegedata.com/cs/data/college/college_pg01_tmpl.jhtml?schoolId=1341
p780
aVhttps://www.collegedata.com/cs/data/college/college_pg01_tmpl.jhtml?schoolId=1651
p781
aVhttps://www.collegedata.com/cs/data/college/college_pg01_tmpl.jhtml?schoolId=3187
p782
aVhttps://www.collegedata.com/cs/data/college/college_pg01_tmpl.jhtml?schoolId=743
p783
aVhttps://www.collegedata.com/cs/data/college/college_pg01_tmpl.jhtml?schoolId=3041
p784
aVhttps://www.collegedata.com/cs/data/college/college_pg01_tmpl.jhtml?schoolId=2059
p785
aVhttps://www.collegedata.com/cs/data/college/college_pg01_tmpl.jhtml?schoolId=780
p786
aVhttps://www.collegedata.com/cs/data/college/college_pg01_tmpl.jhtml?schoolId=922
p787
aVhttps://www.collegedata.com/cs/data/college/college_pg01_tmpl.jhtml?schoolId=1915
p788
aVhttps://www.collegedata.com/cs/data/college/college_pg01_tmpl.jhtml?schoolId=1077
p789
aVhttps://www.collegedata.com/cs/data/college/college_pg01_tmpl.jhtml?schoolId=1654
p790
aVhttps://www.collegedata.com/cs/data/college/college_pg01_tmpl.jhtml?schoolId=1131
p791
aVhttps://www.collegedata.com/cs/data/college/college_pg01_tmpl.jhtml?schoolId=3330
p792
aVhttps://www.collegedata.com/cs/data/college/college_pg01_tmpl.jhtml?schoolId=781
p793
aVhttps://www.collegedata.com/cs/data/college/college_pg01_tmpl.jhtml?schoolId=3356
p794
aVhttps://www.collegedata.com/cs/data/college/college_pg01_tmpl.jhtml?schoolId=610
p795
aVhttps://www.collegedata.com/cs/data/college/college_pg01_tmpl.jhtml?schoolId=3344
p796
aVhttps://www.collegedata.com/cs/data/college/college_pg01_tmpl.jhtml?schoolId=946
p797
aVhttps://www.collegedata.com/cs/data/college/college_pg01_tmpl.jhtml?schoolId=1337
p798
aVhttps://www.collegedata.com/cs/data/college/college_pg01_tmpl.jhtml?schoolId=1539
p799
aVhttps://www.collegedata.com/cs/data/college/college_pg01_tmpl.jhtml?schoolId=1541
p800
aVhttps://www.collegedata.com/cs/data/college/college_pg01_tmpl.jhtml?schoolId=1542
p801
aVhttps://www.collegedata.com/cs/data/college/college_pg01_tmpl.jhtml?schoolId=1514
p802
aVhttps://www.collegedata.com/cs/data/college/college_pg01_tmpl.jhtml?schoolId=736
p803
aVhttps://www.collegedata.com/cs/data/college/college_pg01_tmpl.jhtml?schoolId=1547
p804
aVhttps://www.collegedata.com/cs/data/college/college_pg01_tmpl.jhtml?schoolId=1549
p805
aVhttps://www.collegedata.com/cs/data/college/college_pg01_tmpl.jhtml?schoolId=3364
p806
aVhttps://www.collegedata.com/cs/data/college/college_pg01_tmpl.jhtml?schoolId=1551
p807
aVhttps://www.collegedata.com/cs/data/college/college_pg01_tmpl.jhtml?schoolId=1552
p808
aVhttps://www.collegedata.com/cs/data/college/college_pg01_tmpl.jhtml?schoolId=2090
p809
aVhttps://www.collegedata.com/cs/data/college/college_pg01_tmpl.jhtml?schoolId=1554
p810
aVhttps://www.collegedata.com/cs/data/college/college_pg01_tmpl.jhtml?schoolId=1556
p811
aVhttps://www.collegedata.com/cs/data/college/college_pg01_tmpl.jhtml?schoolId=1557
p812
aVhttps://www.collegedata.com/cs/data/college/college_pg01_tmpl.jhtml?schoolId=1558
p813
aVhttps://www.collegedata.com/cs/data/college/college_pg01_tmpl.jhtml?schoolId=1559
p814
aVhttps://www.collegedata.com/cs/data/college/college_pg01_tmpl.jhtml?schoolId=700
p815
aVhttps://www.collegedata.com/cs/data/college/college_pg01_tmpl.jhtml?schoolId=3174
p816
aVhttps://www.collegedata.com/cs/data/college/college_pg01_tmpl.jhtml?schoolId=540
p817
aVhttps://www.collegedata.com/cs/data/college/college_pg01_tmpl.jhtml?schoolId=469
p818
aVhttps://www.collegedata.com/cs/data/college/college_pg01_tmpl.jhtml?schoolId=467
p819
aVhttps://www.collegedata.com/cs/data/college/college_pg01_tmpl.jhtml?schoolId=468
p820
aVhttps://www.collegedata.com/cs/data/college/college_pg01_tmpl.jhtml?schoolId=637
p821
aVhttps://www.collegedata.com/cs/data/college/college_pg01_tmpl.jhtml?schoolId=705
p822
aVhttps://www.collegedata.com/cs/data/college/college_pg01_tmpl.jhtml?schoolId=928
p823
aVhttps://www.collegedata.com/cs/data/college/college_pg01_tmpl.jhtml?schoolId=3357
p824
aVhttps://www.collegedata.com/cs/data/college/college_pg01_tmpl.jhtml?schoolId=742
p825
aVhttps://www.collegedata.com/cs/data/college/college_pg01_tmpl.jhtml?schoolId=1090
p826
aVhttps://www.collegedata.com/cs/data/college/college_pg01_tmpl.jhtml?schoolId=650
p827
aVhttps://www.collegedata.com/cs/data/college/college_pg01_tmpl.jhtml?schoolId=730
p828
aVhttps://www.collegedata.com/cs/data/college/college_pg01_tmpl.jhtml?schoolId=1093
p829
aVhttps://www.collegedata.com/cs/data/college/college_pg01_tmpl.jhtml?schoolId=2046
p830
aVhttps://www.collegedata.com/cs/data/college/college_pg01_tmpl.jhtml?schoolId=910
p831
aVhttps://www.collegedata.com/cs/data/college/college_pg01_tmpl.jhtml?schoolId=1091
p832
aVhttps://www.collegedata.com/cs/data/college/college_pg01_tmpl.jhtml?schoolId=635
p833
aVhttps://www.collegedata.com/cs/data/college/college_pg01_tmpl.jhtml?schoolId=916
p834
aVhttps://www.collegedata.com/cs/data/college/college_pg01_tmpl.jhtml?schoolId=1207
p835
aVhttps://www.collegedata.com/cs/data/college/college_pg01_tmpl.jhtml?schoolId=647
p836
aVhttps://www.collegedata.com/cs/data/college/college_pg01_tmpl.jhtml?schoolId=1687
p837
aVhttps://www.collegedata.com/cs/data/college/college_pg01_tmpl.jhtml?schoolId=693
p838
aVhttps://www.collegedata.com/cs/data/college/college_pg01_tmpl.jhtml?schoolId=643
p839
aVhttps://www.collegedata.com/cs/data/college/college_pg01_tmpl.jhtml?schoolId=710
p840
aVhttps://www.collegedata.com/cs/data/college/college_pg01_tmpl.jhtml?schoolId=1104
p841
aVhttps://www.collegedata.com/cs/data/college/college_pg01_tmpl.jhtml?schoolId=1100
p842
aVhttps://www.collegedata.com/cs/data/college/college_pg01_tmpl.jhtml?schoolId=686
p843
aVhttps://www.collegedata.com/cs/data/college/college_pg01_tmpl.jhtml?schoolId=1532
p844
aVhttps://www.collegedata.com/cs/data/college/college_pg01_tmpl.jhtml?schoolId=746
p845
aVhttps://www.collegedata.com/cs/data/college/college_pg01_tmpl.jhtml?schoolId=880
p846
aVhttps://www.collegedata.com/cs/data/college/college_pg01_tmpl.jhtml?schoolId=1529
p847
aVhttps://www.collegedata.com/cs/data/college/college_pg01_tmpl.jhtml?schoolId=1536
p848
aVhttps://www.collegedata.com/cs/data/college/college_pg01_tmpl.jhtml?schoolId=1306
p849
aVhttps://www.collegedata.com/cs/data/college/college_pg01_tmpl.jhtml?schoolId=914
p850
aVhttps://www.collegedata.com/cs/data/college/college_pg01_tmpl.jhtml?schoolId=771
p851
aVhttps://www.collegedata.com/cs/data/college/college_pg01_tmpl.jhtml?schoolId=911
p852
aVhttps://www.collegedata.com/cs/data/college/college_pg01_tmpl.jhtml?schoolId=1063
p853
aVhttps://www.collegedata.com/cs/data/college/college_pg01_tmpl.jhtml?schoolId=733
p854
aVhttps://www.collegedata.com/cs/data/college/college_pg01_tmpl.jhtml?schoolId=673
p855
aVhttps://www.collegedata.com/cs/data/college/college_pg01_tmpl.jhtml?schoolId=1045
p856
aVhttps://www.collegedata.com/cs/data/college/college_pg01_tmpl.jhtml?schoolId=1516
p857
aVhttps://www.collegedata.com/cs/data/college/college_pg01_tmpl.jhtml?schoolId=1122
p858
aVhttps://www.collegedata.com/cs/data/college/college_pg01_tmpl.jhtml?schoolId=755
p859
aVhttps://www.collegedata.com/cs/data/college/college_pg01_tmpl.jhtml?schoolId=289
p860
aVhttps://www.collegedata.com/cs/data/college/college_pg01_tmpl.jhtml?schoolId=3188
p861
aVhttps://www.collegedata.com/cs/data/college/college_pg01_tmpl.jhtml?schoolId=3107
p862
aVhttps://www.collegedata.com/cs/data/college/college_pg01_tmpl.jhtml?schoolId=3111
p863
aVhttps://www.collegedata.com/cs/data/college/college_pg01_tmpl.jhtml?schoolId=3122
p864
aVhttps://www.collegedata.com/cs/data/college/college_pg01_tmpl.jhtml?schoolId=3146
p865
aVhttps://www.collegedata.com/cs/data/college/college_pg01_tmpl.jhtml?schoolId=3151
p866
aVhttps://www.collegedata.com/cs/data/college/college_pg01_tmpl.jhtml?schoolId=3109
p867
aVhttps://www.collegedata.com/cs/data/college/college_pg01_tmpl.jhtml?schoolId=3161
p868
aVhttps://www.collegedata.com/cs/data/college/college_pg01_tmpl.jhtml?schoolId=3104
p869
aVhttps://www.collegedata.com/cs/data/college/college_pg01_tmpl.jhtml?schoolId=3110
p870
aVhttps://www.collegedata.com/cs/data/college/college_pg01_tmpl.jhtml?schoolId=3112
p871
aVhttps://www.collegedata.com/cs/data/college/college_pg01_tmpl.jhtml?schoolId=3165
p872
aVhttps://www.collegedata.com/cs/data/college/college_pg01_tmpl.jhtml?schoolId=3333
p873
aVhttps://www.collegedata.com/cs/data/college/college_pg01_tmpl.jhtml?schoolId=1622
p874
aVhttps://www.collegedata.com/cs/data/college/college_pg01_tmpl.jhtml?schoolId=762
p875
aVhttps://www.collegedata.com/cs/data/college/college_pg01_tmpl.jhtml?schoolId=859
p876
aVhttps://www.collegedata.com/cs/data/college/college_pg01_tmpl.jhtml?schoolId=1125
p877
aVhttps://www.collegedata.com/cs/data/college/college_pg01_tmpl.jhtml?schoolId=866
p878
aVhttps://www.collegedata.com/cs/data/college/college_pg01_tmpl.jhtml?schoolId=1134
p879
aVhttps://www.collegedata.com/cs/data/college/college_pg01_tmpl.jhtml?schoolId=1643
p880
aVhttps://www.collegedata.com/cs/data/college/college_pg01_tmpl.jhtml?schoolId=1138
p881
aVhttps://www.collegedata.com/cs/data/college/college_pg01_tmpl.jhtml?schoolId=1658
p882
aVhttps://www.collegedata.com/cs/data/college/college_pg01_tmpl.jhtml?schoolId=1545
p883
aVhttps://www.collegedata.com/cs/data/college/college_pg01_tmpl.jhtml?schoolId=1544
p884
aVhttps://www.collegedata.com/cs/data/college/college_pg01_tmpl.jhtml?schoolId=1546
p885
aVhttps://www.collegedata.com/cs/data/college/college_pg01_tmpl.jhtml?schoolId=707
p886
aVhttps://www.collegedata.com/cs/data/college/college_pg01_tmpl.jhtml?schoolId=764
p887
aVhttps://www.collegedata.com/cs/data/college/college_pg01_tmpl.jhtml?schoolId=2038
p888
aVhttps://www.collegedata.com/cs/data/college/college_pg01_tmpl.jhtml?schoolId=2062
p889
aVhttps://www.collegedata.com/cs/data/college/college_pg01_tmpl.jhtml?schoolId=1511
p890
aVhttps://www.collegedata.com/cs/data/college/college_pg01_tmpl.jhtml?schoolId=714
p891
aVhttps://www.collegedata.com/cs/data/college/college_pg01_tmpl.jhtml?schoolId=1472
p892
aVhttps://www.collegedata.com/cs/data/college/college_pg01_tmpl.jhtml?schoolId=821
p893
aVhttps://www.collegedata.com/cs/data/college/college_pg01_tmpl.jhtml?schoolId=783
p894
aVhttps://www.collegedata.com/cs/data/college/college_pg01_tmpl.jhtml?schoolId=3095
p895
aVhttps://www.collegedata.com/cs/data/college/college_pg01_tmpl.jhtml?schoolId=1145
p896
aVhttps://www.collegedata.com/cs/data/college/college_pg01_tmpl.jhtml?schoolId=572
p897
aVhttps://www.collegedata.com/cs/data/college/college_pg01_tmpl.jhtml?schoolId=1562
p898
aVhttps://www.collegedata.com/cs/data/college/college_pg01_tmpl.jhtml?schoolId=1137
p899
aVhttps://www.collegedata.com/cs/data/college/college_pg01_tmpl.jhtml?schoolId=3046
p900
aVhttps://www.collegedata.com/cs/data/college/college_pg01_tmpl.jhtml?schoolId=3040
p901
aVhttps://www.collegedata.com/cs/data/college/college_pg01_tmpl.jhtml?schoolId=3239
p902
aVhttps://www.collegedata.com/cs/data/college/college_pg01_tmpl.jhtml?schoolId=3203
p903
aVhttps://www.collegedata.com/cs/data/college/college_pg01_tmpl.jhtml?schoolId=757
p904
aVhttps://www.collegedata.com/cs/data/college/college_pg01_tmpl.jhtml?schoolId=295
p905
aVhttps://www.collegedata.com/cs/data/college/college_pg01_tmpl.jhtml?schoolId=715
p906
aVhttps://www.collegedata.com/cs/data/college/college_pg01_tmpl.jhtml?schoolId=2056
p907
aVhttps://www.collegedata.com/cs/data/college/college_pg01_tmpl.jhtml?schoolId=719
p908
aVhttps://www.collegedata.com/cs/data/college/college_pg01_tmpl.jhtml?schoolId=1497
p909
aVhttps://www.collegedata.com/cs/data/college/college_pg01_tmpl.jhtml?schoolId=2092
p910
aVhttps://www.collegedata.com/cs/data/college/college_pg01_tmpl.jhtml?schoolId=3241
p911
aVhttps://www.collegedata.com/cs/data/college/college_pg01_tmpl.jhtml?schoolId=3241
p912
aVhttps://www.collegedata.com/cs/data/college/college_pg01_tmpl.jhtml?schoolId=1931
p913
aVhttps://www.collegedata.com/cs/data/college/college_pg01_tmpl.jhtml?schoolId=1592
p914
aVhttps://www.collegedata.com/cs/data/college/college_pg01_tmpl.jhtml?schoolId=1025
p915
aVhttps://www.collegedata.com/cs/data/college/college_pg01_tmpl.jhtml?schoolId=683
p916
aVhttps://www.collegedata.com/cs/data/college/college_pg01_tmpl.jhtml?schoolId=729
p917
aVhttps://www.collegedata.com/cs/data/college/college_pg01_tmpl.jhtml?schoolId=904
p918
aVhttps://www.collegedata.com/cs/data/college/college_pg01_tmpl.jhtml?schoolId=1146
p919
aVhttps://www.collegedata.com/cs/data/college/college_pg01_tmpl.jhtml?schoolId=699
p920
aVhttps://www.collegedata.com/cs/data/college/college_pg01_tmpl.jhtml?schoolId=741
p921
aVhttps://www.collegedata.com/cs/data/college/college_pg01_tmpl.jhtml?schoolId=1142
p922
aVhttps://www.collegedata.com/cs/data/college/college_pg01_tmpl.jhtml?schoolId=691
p923
aVhttps://www.collegedata.com/cs/data/college/college_pg01_tmpl.jhtml?schoolId=676
p924
aVhttps://www.collegedata.com/cs/data/college/college_pg01_tmpl.jhtml?schoolId=825
p925
aVhttps://www.collegedata.com/cs/data/college/college_pg01_tmpl.jhtml?schoolId=1379
p926
aVhttps://www.collegedata.com/cs/data/college/college_pg01_tmpl.jhtml?schoolId=3052
p927
aVhttps://www.collegedata.com/cs/data/college/college_pg01_tmpl.jhtml?schoolId=1140
p928
aVhttps://www.collegedata.com/cs/data/college/college_pg01_tmpl.jhtml?schoolId=3359
p929
aVhttps://www.collegedata.com/cs/data/college/college_pg01_tmpl.jhtml?schoolId=1380
p930
aVhttps://www.collegedata.com/cs/data/college/college_pg01_tmpl.jhtml?schoolId=7
p931
aVhttps://www.collegedata.com/cs/data/college/college_pg01_tmpl.jhtml?schoolId=8
p932
aVhttps://www.collegedata.com/cs/data/college/college_pg01_tmpl.jhtml?schoolId=9
p933
aVhttps://www.collegedata.com/cs/data/college/college_pg01_tmpl.jhtml?schoolId=10
p934
aVhttps://www.collegedata.com/cs/data/college/college_pg01_tmpl.jhtml?schoolId=1274
p935
aVhttps://www.collegedata.com/cs/data/college/college_pg01_tmpl.jhtml?schoolId=11
p936
aVhttps://www.collegedata.com/cs/data/college/college_pg01_tmpl.jhtml?schoolId=12
p937
aVhttps://www.collegedata.com/cs/data/college/college_pg01_tmpl.jhtml?schoolId=14
p938
aVhttps://www.collegedata.com/cs/data/college/college_pg01_tmpl.jhtml?schoolId=15
p939
aVhttps://www.collegedata.com/cs/data/college/college_pg01_tmpl.jhtml?schoolId=18
p940
aVhttps://www.collegedata.com/cs/data/college/college_pg01_tmpl.jhtml?schoolId=21
p941
aVhttps://www.collegedata.com/cs/data/college/college_pg01_tmpl.jhtml?schoolId=126
p942
aVhttps://www.collegedata.com/cs/data/college/college_pg01_tmpl.jhtml?schoolId=3028
p943
aVhttps://www.collegedata.com/cs/data/college/college_pg01_tmpl.jhtml?schoolId=592
p944
aVhttps://www.collegedata.com/cs/data/college/college_pg01_tmpl.jhtml?schoolId=23
p945
aVhttps://www.collegedata.com/cs/data/college/college_pg01_tmpl.jhtml?schoolId=32
p946
aVhttps://www.collegedata.com/cs/data/college/college_pg01_tmpl.jhtml?schoolId=35
p947
aVhttps://www.collegedata.com/cs/data/college/college_pg01_tmpl.jhtml?schoolId=116
p948
aVhttps://www.collegedata.com/cs/data/college/college_pg01_tmpl.jhtml?schoolId=52
p949
aVhttps://www.collegedata.com/cs/data/college/college_pg01_tmpl.jhtml?schoolId=119
p950
aVhttps://www.collegedata.com/cs/data/college/college_pg01_tmpl.jhtml?schoolId=1149
p951
aVhttps://www.collegedata.com/cs/data/college/college_pg01_tmpl.jhtml?schoolId=125
p952
aVhttps://www.collegedata.com/cs/data/college/college_pg01_tmpl.jhtml?schoolId=1240
p953
aVhttps://www.collegedata.com/cs/data/college/college_pg01_tmpl.jhtml?schoolId=1401
p954
aVhttps://www.collegedata.com/cs/data/college/college_pg01_tmpl.jhtml?schoolId=1995
p955
aVhttps://www.collegedata.com/cs/data/college/college_pg01_tmpl.jhtml?schoolId=128
p956
aVhttps://www.collegedata.com/cs/data/college/college_pg01_tmpl.jhtml?schoolId=132
p957
aVhttps://www.collegedata.com/cs/data/college/college_pg01_tmpl.jhtml?schoolId=3027
p958
aVhttps://www.collegedata.com/cs/data/college/college_pg01_tmpl.jhtml?schoolId=3260
p959
aVhttps://www.collegedata.com/cs/data/college/college_pg01_tmpl.jhtml?schoolId=3029
p960
aVhttps://www.collegedata.com/cs/data/college/college_pg01_tmpl.jhtml?schoolId=134
p961
aVhttps://www.collegedata.com/cs/data/college/college_pg01_tmpl.jhtml?schoolId=3039
p962
aVhttps://www.collegedata.com/cs/data/college/college_pg01_tmpl.jhtml?schoolId=1825
p963
aVhttps://www.collegedata.com/cs/data/college/college_pg01_tmpl.jhtml?schoolId=1245
p964
aVhttps://www.collegedata.com/cs/data/college/college_pg01_tmpl.jhtml?schoolId=83
p965
aVhttps://www.collegedata.com/cs/data/college/college_pg01_tmpl.jhtml?schoolId=135
p966
aVhttps://www.collegedata.com/cs/data/college/college_pg01_tmpl.jhtml?schoolId=136
p967
aVhttps://www.collegedata.com/cs/data/college/college_pg01_tmpl.jhtml?schoolId=140
p968
aVhttps://www.collegedata.com/cs/data/college/college_pg01_tmpl.jhtml?schoolId=143
p969
aVhttps://www.collegedata.com/cs/data/college/college_pg01_tmpl.jhtml?schoolId=2049
p970
aVhttps://www.collegedata.com/cs/data/college/college_pg01_tmpl.jhtml?schoolId=144
p971
aVhttps://www.collegedata.com/cs/data/college/college_pg01_tmpl.jhtml?schoolId=146
p972
aVhttps://www.collegedata.com/cs/data/college/college_pg01_tmpl.jhtml?schoolId=138
p973
aVhttps://www.collegedata.com/cs/data/college/college_pg01_tmpl.jhtml?schoolId=453
p974
aVhttps://www.collegedata.com/cs/data/college/college_pg01_tmpl.jhtml?schoolId=158
p975
aVhttps://www.collegedata.com/cs/data/college/college_pg01_tmpl.jhtml?schoolId=789
p976
aVhttps://www.collegedata.com/cs/data/college/college_pg01_tmpl.jhtml?schoolId=163
p977
aVhttps://www.collegedata.com/cs/data/college/college_pg01_tmpl.jhtml?schoolId=177
p978
aVhttps://www.collegedata.com/cs/data/college/college_pg01_tmpl.jhtml?schoolId=6
p979
aVhttps://www.collegedata.com/cs/data/college/college_pg01_tmpl.jhtml?schoolId=178
p980
aVhttps://www.collegedata.com/cs/data/college/college_pg01_tmpl.jhtml?schoolId=179
p981
aVhttps://www.collegedata.com/cs/data/college/college_pg01_tmpl.jhtml?schoolId=90
p982
aVhttps://www.collegedata.com/cs/data/college/college_pg01_tmpl.jhtml?schoolId=180
p983
aVhttps://www.collegedata.com/cs/data/college/college_pg01_tmpl.jhtml?schoolId=76
p984
aVhttps://www.collegedata.com/cs/data/college/college_pg01_tmpl.jhtml?schoolId=658
p985
aVhttps://www.collegedata.com/cs/data/college/college_pg01_tmpl.jhtml?schoolId=181
p986
aVhttps://www.collegedata.com/cs/data/college/college_pg01_tmpl.jhtml?schoolId=565
p987
aVhttps://www.collegedata.com/cs/data/college/college_pg01_tmpl.jhtml?schoolId=1192
p988
aVhttps://www.collegedata.com/cs/data/college/college_pg01_tmpl.jhtml?schoolId=187
p989
aVhttps://www.collegedata.com/cs/data/college/college_pg01_tmpl.jhtml?schoolId=204
p990
aVhttps://www.collegedata.com/cs/data/college/college_pg01_tmpl.jhtml?schoolId=209
p991
aVhttps://www.collegedata.com/cs/data/college/college_pg01_tmpl.jhtml?schoolId=296
p992
aVhttps://www.collegedata.com/cs/data/college/college_pg01_tmpl.jhtml?schoolId=216
p993
aVhttps://www.collegedata.com/cs/data/college/college_pg01_tmpl.jhtml?schoolId=218
p994
aVhttps://www.collegedata.com/cs/data/college/college_pg01_tmpl.jhtml?schoolId=220
p995
aVhttps://www.collegedata.com/cs/data/college/college_pg01_tmpl.jhtml?schoolId=3000
p996
aVhttps://www.collegedata.com/cs/data/college/college_pg01_tmpl.jhtml?schoolId=1832
p997
aVhttps://www.collegedata.com/cs/data/college/college_pg01_tmpl.jhtml?schoolId=1270
p998
aVhttps://www.collegedata.com/cs/data/college/college_pg01_tmpl.jhtml?schoolId=1275
p999
aVhttps://www.collegedata.com/cs/data/college/college_pg01_tmpl.jhtml?schoolId=223
p1000
aVhttps://www.collegedata.com/cs/data/college/college_pg01_tmpl.jhtml?schoolId=225
p1001
aVhttps://www.collegedata.com/cs/data/college/college_pg01_tmpl.jhtml?schoolId=227
p1002
aVhttps://www.collegedata.com/cs/data/college/college_pg01_tmpl.jhtml?schoolId=405
p1003
aVhttps://www.collegedata.com/cs/data/college/college_pg01_tmpl.jhtml?schoolId=228
p1004
aVhttps://www.collegedata.com/cs/data/college/college_pg01_tmpl.jhtml?schoolId=231
p1005
aVhttps://www.collegedata.com/cs/data/college/college_pg01_tmpl.jhtml?schoolId=232
p1006
aVhttps://www.collegedata.com/cs/data/college/college_pg01_tmpl.jhtml?schoolId=233
p1007
aVhttps://www.collegedata.com/cs/data/college/college_pg01_tmpl.jhtml?schoolId=248
p1008
aVhttps://www.collegedata.com/cs/data/college/college_pg01_tmpl.jhtml?schoolId=235
p1009
aVhttps://www.collegedata.com/cs/data/college/college_pg01_tmpl.jhtml?schoolId=87
p1010
aVhttps://www.collegedata.com/cs/data/college/college_pg01_tmpl.jhtml?schoolId=101
p1011
aVhttps://www.collegedata.com/cs/data/college/college_pg01_tmpl.jhtml?schoolId=260
p1012
aVhttps://www.collegedata.com/cs/data/college/college_pg01_tmpl.jhtml?schoolId=435
p1013
aVhttps://www.collegedata.com/cs/data/college/college_pg01_tmpl.jhtml?schoolId=22
p1014
aVhttps://www.collegedata.com/cs/data/college/college_pg01_tmpl.jhtml?schoolId=287
p1015
aVhttps://www.collegedata.com/cs/data/college/college_pg01_tmpl.jhtml?schoolId=40
p1016
aVhttps://www.collegedata.com/cs/data/college/college_pg01_tmpl.jhtml?schoolId=404
p1017
aVhttps://www.collegedata.com/cs/data/college/college_pg01_tmpl.jhtml?schoolId=26
p1018
aVhttps://www.collegedata.com/cs/data/college/college_pg01_tmpl.jhtml?schoolId=797
p1019
aVhttps://www.collegedata.com/cs/data/college/college_pg01_tmpl.jhtml?schoolId=399
p1020
aVhttps://www.collegedata.com/cs/data/college/college_pg01_tmpl.jhtml?schoolId=1436
p1021
aVhttps://www.collegedata.com/cs/data/college/college_pg01_tmpl.jhtml?schoolId=1150
p1022
aVhttps://www.collegedata.com/cs/data/college/college_pg01_tmpl.jhtml?schoolId=400
p1023
aVhttps://www.collegedata.com/cs/data/college/college_pg01_tmpl.jhtml?schoolId=238
p1024
aVhttps://www.collegedata.com/cs/data/college/college_pg01_tmpl.jhtml?schoolId=787
p1025
aVhttps://www.collegedata.com/cs/data/college/college_pg01_tmpl.jhtml?schoolId=522
p1026
aVhttps://www.collegedata.com/cs/data/college/college_pg01_tmpl.jhtml?schoolId=1095
p1027
aVhttps://www.collegedata.com/cs/data/college/college_pg01_tmpl.jhtml?schoolId=1197
p1028
aVhttps://www.collegedata.com/cs/data/college/college_pg01_tmpl.jhtml?schoolId=947
p1029
aVhttps://www.collegedata.com/cs/data/college/college_pg01_tmpl.jhtml?schoolId=406
p1030
aVhttps://www.collegedata.com/cs/data/college/college_pg01_tmpl.jhtml?schoolId=403
p1031
aVhttps://www.collegedata.com/cs/data/college/college_pg01_tmpl.jhtml?schoolId=1414
p1032
aVhttps://www.collegedata.com/cs/data/college/college_pg01_tmpl.jhtml?schoolId=13
p1033
aVhttps://www.collegedata.com/cs/data/college/college_pg01_tmpl.jhtml?schoolId=1947
p1034
aVhttps://www.collegedata.com/cs/data/college/college_pg01_tmpl.jhtml?schoolId=578
p1035
aVhttps://www.collegedata.com/cs/data/college/college_pg01_tmpl.jhtml?schoolId=591
p1036
aVhttps://www.collegedata.com/cs/data/college/college_pg01_tmpl.jhtml?schoolId=973
p1037
aVhttps://www.collegedata.com/cs/data/college/college_pg01_tmpl.jhtml?schoolId=1155
p1038
aVhttps://www.collegedata.com/cs/data/college/college_pg01_tmpl.jhtml?schoolId=886
p1039
aVhttps://www.collegedata.com/cs/data/college/college_pg01_tmpl.jhtml?schoolId=241
p1040
aVhttps://www.collegedata.com/cs/data/college/college_pg01_tmpl.jhtml?schoolId=407
p1041
aVhttps://www.collegedata.com/cs/data/college/college_pg01_tmpl.jhtml?schoolId=408
p1042
aVhttps://www.collegedata.com/cs/data/college/college_pg01_tmpl.jhtml?schoolId=792
p1043
aVhttps://www.collegedata.com/cs/data/college/college_pg01_tmpl.jhtml?schoolId=455
p1044
aVhttps://www.collegedata.com/cs/data/college/college_pg01_tmpl.jhtml?schoolId=451
p1045
aVhttps://www.collegedata.com/cs/data/college/college_pg01_tmpl.jhtml?schoolId=832
p1046
aVhttps://www.collegedata.com/cs/data/college/college_pg01_tmpl.jhtml?schoolId=409
p1047
aVhttps://www.collegedata.com/cs/data/college/college_pg01_tmpl.jhtml?schoolId=800
p1048
aVhttps://www.collegedata.com/cs/data/college/college_pg01_tmpl.jhtml?schoolId=410
p1049
aVhttps://www.collegedata.com/cs/data/college/college_pg01_tmpl.jhtml?schoolId=411
p1050
aVhttps://www.collegedata.com/cs/data/college/college_pg01_tmpl.jhtml?schoolId=450
p1051
aVhttps://www.collegedata.com/cs/data/college/college_pg01_tmpl.jhtml?schoolId=449
p1052
aVhttps://www.collegedata.com/cs/data/college/college_pg01_tmpl.jhtml?schoolId=1219
p1053
aVhttps://www.collegedata.com/cs/data/college/college_pg01_tmpl.jhtml?schoolId=1241
p1054
aVhttps://www.collegedata.com/cs/data/college/college_pg01_tmpl.jhtml?schoolId=1014
p1055
aVhttps://www.collegedata.com/cs/data/college/college_pg01_tmpl.jhtml?schoolId=1327
p1056
aVhttps://www.collegedata.com/cs/data/college/college_pg01_tmpl.jhtml?schoolId=452
p1057
aVhttps://www.collegedata.com/cs/data/college/college_pg01_tmpl.jhtml?schoolId=537
p1058
aVhttps://www.collegedata.com/cs/data/college/college_pg01_tmpl.jhtml?schoolId=1089
p1059
aVhttps://www.collegedata.com/cs/data/college/college_pg01_tmpl.jhtml?schoolId=292
p1060
aVhttps://www.collegedata.com/cs/data/college/college_pg01_tmpl.jhtml?schoolId=786
p1061
aVhttps://www.collegedata.com/cs/data/college/college_pg01_tmpl.jhtml?schoolId=1081
p1062
aVhttps://www.collegedata.com/cs/data/college/college_pg01_tmpl.jhtml?schoolId=3347
p1063
aVhttps://www.collegedata.com/cs/data/college/college_pg01_tmpl.jhtml?schoolId=249
p1064
aVhttps://www.collegedata.com/cs/data/college/college_pg01_tmpl.jhtml?schoolId=1210
p1065
aVhttps://www.collegedata.com/cs/data/college/college_pg01_tmpl.jhtml?schoolId=1148
p1066
aVhttps://www.collegedata.com/cs/data/college/college_pg01_tmpl.jhtml?schoolId=412
p1067
aVhttps://www.collegedata.com/cs/data/college/college_pg01_tmpl.jhtml?schoolId=1171
p1068
aVhttps://www.collegedata.com/cs/data/college/college_pg01_tmpl.jhtml?schoolId=413
p1069
aVhttps://www.collegedata.com/cs/data/college/college_pg01_tmpl.jhtml?schoolId=2003
p1070
aVhttps://www.collegedata.com/cs/data/college/college_pg01_tmpl.jhtml?schoolId=246
p1071
aVhttps://www.collegedata.com/cs/data/college/college_pg01_tmpl.jhtml?schoolId=447
p1072
aVhttps://www.collegedata.com/cs/data/college/college_pg01_tmpl.jhtml?schoolId=833
p1073
aVhttps://www.collegedata.com/cs/data/college/college_pg01_tmpl.jhtml?schoolId=793
p1074
aVhttps://www.collegedata.com/cs/data/college/college_pg01_tmpl.jhtml?schoolId=1066
p1075
aVhttps://www.collegedata.com/cs/data/college/college_pg01_tmpl.jhtml?schoolId=446
p1076
aVhttps://www.collegedata.com/cs/data/college/college_pg01_tmpl.jhtml?schoolId=1244
p1077
aVhttps://www.collegedata.com/cs/data/college/college_pg01_tmpl.jhtml?schoolId=250
p1078
aVhttps://www.collegedata.com/cs/data/college/college_pg01_tmpl.jhtml?schoolId=445
p1079
aVhttps://www.collegedata.com/cs/data/college/college_pg01_tmpl.jhtml?schoolId=796
p1080
aVhttps://www.collegedata.com/cs/data/college/college_pg01_tmpl.jhtml?schoolId=414
p1081
aVhttps://www.collegedata.com/cs/data/college/college_pg01_tmpl.jhtml?schoolId=415
p1082
aVhttps://www.collegedata.com/cs/data/college/college_pg01_tmpl.jhtml?schoolId=2024
p1083
aVhttps://www.collegedata.com/cs/data/college/college_pg01_tmpl.jhtml?schoolId=795
p1084
aVhttps://www.collegedata.com/cs/data/college/college_pg01_tmpl.jhtml?schoolId=444
p1085
aVhttps://www.collegedata.com/cs/data/college/college_pg01_tmpl.jhtml?schoolId=1022
p1086
aVhttps://www.collegedata.com/cs/data/college/college_pg01_tmpl.jhtml?schoolId=1214
p1087
aVhttps://www.collegedata.com/cs/data/college/college_pg01_tmpl.jhtml?schoolId=1269
p1088
aVhttps://www.collegedata.com/cs/data/college/college_pg01_tmpl.jhtml?schoolId=417
p1089
aVhttps://www.collegedata.com/cs/data/college/college_pg01_tmpl.jhtml?schoolId=418
p1090
aVhttps://www.collegedata.com/cs/data/college/college_pg01_tmpl.jhtml?schoolId=1320
p1091
aVhttps://www.collegedata.com/cs/data/college/college_pg01_tmpl.jhtml?schoolId=419
p1092
aVhttps://www.collegedata.com/cs/data/college/college_pg01_tmpl.jhtml?schoolId=1853
p1093
aVhttps://www.collegedata.com/cs/data/college/college_pg01_tmpl.jhtml?schoolId=442
p1094
aVhttps://www.collegedata.com/cs/data/college/college_pg01_tmpl.jhtml?schoolId=835
p1095
aVhttps://www.collegedata.com/cs/data/college/college_pg01_tmpl.jhtml?schoolId=443
p1096
aVhttps://www.collegedata.com/cs/data/college/college_pg01_tmpl.jhtml?schoolId=420
p1097
aVhttps://www.collegedata.com/cs/data/college/college_pg01_tmpl.jhtml?schoolId=423
p1098
aVhttps://www.collegedata.com/cs/data/college/college_pg01_tmpl.jhtml?schoolId=439
p1099
aVhttps://www.collegedata.com/cs/data/college/college_pg01_tmpl.jhtml?schoolId=1013
p1100
aVhttps://www.collegedata.com/cs/data/college/college_pg01_tmpl.jhtml?schoolId=402
p1101
aVhttps://www.collegedata.com/cs/data/college/college_pg01_tmpl.jhtml?schoolId=256
p1102
aVhttps://www.collegedata.com/cs/data/college/college_pg01_tmpl.jhtml?schoolId=1023
p1103
aVhttps://www.collegedata.com/cs/data/college/college_pg01_tmpl.jhtml?schoolId=1010
p1104
aVhttps://www.collegedata.com/cs/data/college/college_pg01_tmpl.jhtml?schoolId=441
p1105
aVhttps://www.collegedata.com/cs/data/college/college_pg01_tmpl.jhtml?schoolId=1012
p1106
aVhttps://www.collegedata.com/cs/data/college/college_pg01_tmpl.jhtml?schoolId=1016
p1107
aVhttps://www.collegedata.com/cs/data/college/college_pg01_tmpl.jhtml?schoolId=1856
p1108
aVhttps://www.collegedata.com/cs/data/college/college_pg01_tmpl.jhtml?schoolId=1018
p1109
aVhttps://www.collegedata.com/cs/data/college/college_pg01_tmpl.jhtml?schoolId=2011
p1110
aVhttps://www.collegedata.com/cs/data/college/college_pg01_tmpl.jhtml?schoolId=798
p1111
aVhttps://www.collegedata.com/cs/data/college/college_pg01_tmpl.jhtml?schoolId=424
p1112
aVhttps://www.collegedata.com/cs/data/college/college_pg01_tmpl.jhtml?schoolId=252
p1113
aVhttps://www.collegedata.com/cs/data/college/college_pg01_tmpl.jhtml?schoolId=1815
p1114
aVhttps://www.collegedata.com/cs/data/college/college_pg01_tmpl.jhtml?schoolId=440
p1115
aVhttps://www.collegedata.com/cs/data/college/college_pg01_tmpl.jhtml?schoolId=425
p1116
aVhttps://www.collegedata.com/cs/data/college/college_pg01_tmpl.jhtml?schoolId=426
p1117
aVhttps://www.collegedata.com/cs/data/college/college_pg01_tmpl.jhtml?schoolId=799
p1118
aVhttps://www.collegedata.com/cs/data/college/college_pg01_tmpl.jhtml?schoolId=801
p1119
aVhttps://www.collegedata.com/cs/data/college/college_pg01_tmpl.jhtml?schoolId=1272
p1120
aVhttps://www.collegedata.com/cs/data/college/college_pg01_tmpl.jhtml?schoolId=428
p1121
aVhttps://www.collegedata.com/cs/data/college/college_pg01_tmpl.jhtml?schoolId=427
p1122
aVhttps://www.collegedata.com/cs/data/college/college_pg01_tmpl.jhtml?schoolId=794
p1123
aVhttps://www.collegedata.com/cs/data/college/college_pg01_tmpl.jhtml?schoolId=1151
p1124
aVhttps://www.collegedata.com/cs/data/college/college_pg01_tmpl.jhtml?schoolId=429
p1125
aVhttps://www.collegedata.com/cs/data/college/college_pg01_tmpl.jhtml?schoolId=1174
p1126
aVhttps://www.collegedata.com/cs/data/college/college_pg01_tmpl.jhtml?schoolId=430
p1127
aVhttps://www.collegedata.com/cs/data/college/college_pg01_tmpl.jhtml?schoolId=431
p1128
aVhttps://www.collegedata.com/cs/data/college/college_pg01_tmpl.jhtml?schoolId=1015
p1129
aVhttps://www.collegedata.com/cs/data/college/college_pg01_tmpl.jhtml?schoolId=1861
p1130
aVhttps://www.collegedata.com/cs/data/college/college_pg01_tmpl.jhtml?schoolId=104
p1131
aVhttps://www.collegedata.com/cs/data/college/college_pg01_tmpl.jhtml?schoolId=121
p1132
aVhttps://www.collegedata.com/cs/data/college/college_pg01_tmpl.jhtml?schoolId=149
p1133
aVhttps://www.collegedata.com/cs/data/college/college_pg01_tmpl.jhtml?schoolId=152
p1134
aVhttps://www.collegedata.com/cs/data/college/college_pg01_tmpl.jhtml?schoolId=153
p1135
aVhttps://www.collegedata.com/cs/data/college/college_pg01_tmpl.jhtml?schoolId=161
p1136
aVhttps://www.collegedata.com/cs/data/college/college_pg01_tmpl.jhtml?schoolId=166
p1137
aVhttps://www.collegedata.com/cs/data/college/college_pg01_tmpl.jhtml?schoolId=169
p1138
aVhttps://www.collegedata.com/cs/data/college/college_pg01_tmpl.jhtml?schoolId=174
p1139
aVhttps://www.collegedata.com/cs/data/college/college_pg01_tmpl.jhtml?schoolId=176
p1140
aVhttps://www.collegedata.com/cs/data/college/college_pg01_tmpl.jhtml?schoolId=182
p1141
aVhttps://www.collegedata.com/cs/data/college/college_pg01_tmpl.jhtml?schoolId=437
p1142
aVhttps://www.collegedata.com/cs/data/college/college_pg01_tmpl.jhtml?schoolId=184
p1143
aVhttps://www.collegedata.com/cs/data/college/college_pg01_tmpl.jhtml?schoolId=186
p1144
aVhttps://www.collegedata.com/cs/data/college/college_pg01_tmpl.jhtml?schoolId=191
p1145
aVhttps://www.collegedata.com/cs/data/college/college_pg01_tmpl.jhtml?schoolId=198
p1146
aVhttps://www.collegedata.com/cs/data/college/college_pg01_tmpl.jhtml?schoolId=448
p1147
aVhttps://www.collegedata.com/cs/data/college/college_pg01_tmpl.jhtml?schoolId=200
p1148
aVhttps://www.collegedata.com/cs/data/college/college_pg01_tmpl.jhtml?schoolId=201
p1149
aVhttps://www.collegedata.com/cs/data/college/college_pg01_tmpl.jhtml?schoolId=206
p1150
aVhttps://www.collegedata.com/cs/data/college/college_pg01_tmpl.jhtml?schoolId=1865
p1151
aVhttps://www.collegedata.com/cs/data/college/college_pg01_tmpl.jhtml?schoolId=208
p1152
aVhttps://www.collegedata.com/cs/data/college/college_pg01_tmpl.jhtml?schoolId=1247
p1153
aVhttps://www.collegedata.com/cs/data/college/college_pg01_tmpl.jhtml?schoolId=213
p1154
aVhttps://www.collegedata.com/cs/data/college/college_pg01_tmpl.jhtml?schoolId=215
p1155
aVhttps://www.collegedata.com/cs/data/college/college_pg01_tmpl.jhtml?schoolId=1868
p1156
aVhttps://www.collegedata.com/cs/data/college/college_pg01_tmpl.jhtml?schoolId=630
p1157
aVhttps://www.collegedata.com/cs/data/college/college_pg01_tmpl.jhtml?schoolId=606
p1158
aVhttps://www.collegedata.com/cs/data/college/college_pg01_tmpl.jhtml?schoolId=236
p1159
aVhttps://www.collegedata.com/cs/data/college/college_pg01_tmpl.jhtml?schoolId=237
p1160
aVhttps://www.collegedata.com/cs/data/college/college_pg01_tmpl.jhtml?schoolId=2002
p1161
aVhttps://www.collegedata.com/cs/data/college/college_pg01_tmpl.jhtml?schoolId=242
p1162
aVhttps://www.collegedata.com/cs/data/college/college_pg01_tmpl.jhtml?schoolId=1278
p1163
aVhttps://www.collegedata.com/cs/data/college/college_pg01_tmpl.jhtml?schoolId=243
p1164
aVhttps://www.collegedata.com/cs/data/college/college_pg01_tmpl.jhtml?schoolId=254
p1165
aVhttps://www.collegedata.com/cs/data/college/college_pg01_tmpl.jhtml?schoolId=1273
p1166
aVhttps://www.collegedata.com/cs/data/college/college_pg01_tmpl.jhtml?schoolId=255
p1167
aVhttps://www.collegedata.com/cs/data/college/college_pg01_tmpl.jhtml?schoolId=294
p1168
aVhttps://www.collegedata.com/cs/data/college/college_pg01_tmpl.jhtml?schoolId=258
p1169
aVhttps://www.collegedata.com/cs/data/college/college_pg01_tmpl.jhtml?schoolId=623
p1170
aVhttps://www.collegedata.com/cs/data/college/college_pg01_tmpl.jhtml?schoolId=627
p1171
aVhttps://www.collegedata.com/cs/data/college/college_pg01_tmpl.jhtml?schoolId=628
p1172
aVhttps://www.collegedata.com/cs/data/college/college_pg01_tmpl.jhtml?schoolId=631
p1173
aVhttps://www.collegedata.com/cs/data/college/college_pg01_tmpl.jhtml?schoolId=432
p1174
aVhttps://www.collegedata.com/cs/data/college/college_pg01_tmpl.jhtml?schoolId=3022
p1175
aVhttps://www.collegedata.com/cs/data/college/college_pg01_tmpl.jhtml?schoolId=3228
p1176
aVhttps://www.collegedata.com/cs/data/college/college_pg01_tmpl.jhtml?schoolId=865
p1177
aVhttps://www.collegedata.com/cs/data/college/college_pg01_tmpl.jhtml?schoolId=1198
p1178
aVhttps://www.collegedata.com/cs/data/college/college_pg01_tmpl.jhtml?schoolId=834
p1179
aVhttps://www.collegedata.com/cs/data/college/college_pg01_tmpl.jhtml?schoolId=1042
p1180
aVhttps://www.collegedata.com/cs/data/college/college_pg01_tmpl.jhtml?schoolId=516
p1181
aVhttps://www.collegedata.com/cs/data/college/college_pg01_tmpl.jhtml?schoolId=436
p1182
aVhttps://www.collegedata.com/cs/data/college/college_pg01_tmpl.jhtml?schoolId=566
p1183
aVhttps://www.collegedata.com/cs/data/college/college_pg01_tmpl.jhtml?schoolId=1199
p1184
aVhttps://www.collegedata.com/cs/data/college/college_pg01_tmpl.jhtml?schoolId=1011
p1185
aVhttps://www.collegedata.com/cs/data/college/college_pg01_tmpl.jhtml?schoolId=1863
p1186
aVhttps://www.collegedata.com/cs/data/college/college_pg01_tmpl.jhtml?schoolId=456
p1187
aVhttps://www.collegedata.com/cs/data/college/college_pg01_tmpl.jhtml?schoolId=1944
p1188
aVhttps://www.collegedata.com/cs/data/college/college_pg01_tmpl.jhtml?schoolId=438
p1189
aVhttps://www.collegedata.com/cs/data/college/college_pg01_tmpl.jhtml?schoolId=1200
p1190
aVhttps://www.collegedata.com/cs/data/college/college_pg01_tmpl.jhtml?schoolId=1879
p1191
aVhttps://www.collegedata.com/cs/data/college/college_pg01_tmpl.jhtml?schoolId=50
p1192
aVhttps://www.collegedata.com/cs/data/college/college_pg01_tmpl.jhtml?schoolId=3367
p1193
aVhttps://www.collegedata.com/cs/data/college/college_pg01_tmpl.jhtml?schoolId=524
p1194
aVhttps://www.collegedata.com/cs/data/college/college_pg01_tmpl.jhtml?schoolId=58
p1195
aVhttps://www.collegedata.com/cs/data/college/college_pg01_tmpl.jhtml?schoolId=614
p1196
aVhttps://www.collegedata.com/cs/data/college/college_pg01_tmpl.jhtml?schoolId=602
p1197
aVhttps://www.collegedata.com/cs/data/college/college_pg01_tmpl.jhtml?schoolId=581
p1198
aVhttps://www.collegedata.com/cs/data/college/college_pg01_tmpl.jhtml?schoolId=601
p1199
aVhttps://www.collegedata.com/cs/data/college/college_pg01_tmpl.jhtml?schoolId=2028
p1200
aVhttps://www.collegedata.com/cs/data/college/college_pg01_tmpl.jhtml?schoolId=598
p1201
aVhttps://www.collegedata.com/cs/data/college/college_pg01_tmpl.jhtml?schoolId=2027
p1202
aVhttps://www.collegedata.com/cs/data/college/college_pg01_tmpl.jhtml?schoolId=2022
p1203
aVhttps://www.collegedata.com/cs/data/college/college_pg01_tmpl.jhtml?schoolId=62
p1204
aVhttps://www.collegedata.com/cs/data/college/college_pg01_tmpl.jhtml?schoolId=2032
p1205
aVhttps://www.collegedata.com/cs/data/college/college_pg01_tmpl.jhtml?schoolId=2026
p1206
aVhttps://www.collegedata.com/cs/data/college/college_pg01_tmpl.jhtml?schoolId=65
p1207
aVhttps://www.collegedata.com/cs/data/college/college_pg01_tmpl.jhtml?schoolId=2025
p1208
aVhttps://www.collegedata.com/cs/data/college/college_pg01_tmpl.jhtml?schoolId=597
p1209
aVhttps://www.collegedata.com/cs/data/college/college_pg01_tmpl.jhtml?schoolId=2029
p1210
aVhttps://www.collegedata.com/cs/data/college/college_pg01_tmpl.jhtml?schoolId=2030
p1211
aVhttps://www.collegedata.com/cs/data/college/college_pg01_tmpl.jhtml?schoolId=596
p1212
aVhttps://www.collegedata.com/cs/data/college/college_pg01_tmpl.jhtml?schoolId=2031
p1213
aVhttps://www.collegedata.com/cs/data/college/college_pg01_tmpl.jhtml?schoolId=59
p1214
aVhttps://www.collegedata.com/cs/data/college/college_pg01_tmpl.jhtml?schoolId=3324
p1215
aVhttps://www.collegedata.com/cs/data/college/college_pg01_tmpl.jhtml?schoolId=2023
p1216
aVhttps://www.collegedata.com/cs/data/college/college_pg01_tmpl.jhtml?schoolId=2033
p1217
aVhttps://www.collegedata.com/cs/data/college/college_pg01_tmpl.jhtml?schoolId=3199
p1218
aVhttps://www.collegedata.com/cs/data/college/college_pg01_tmpl.jhtml?schoolId=1923
p1219
aVhttps://www.collegedata.com/cs/data/college/college_pg01_tmpl.jhtml?schoolId=3231
p1220
aVhttps://www.collegedata.com/cs/data/college/college_pg01_tmpl.jhtml?schoolId=1419
p1221
aVhttps://www.collegedata.com/cs/data/college/college_pg01_tmpl.jhtml?schoolId=79
p1222
aVhttps://www.collegedata.com/cs/data/college/college_pg01_tmpl.jhtml?schoolId=3047
p1223
aVhttps://www.collegedata.com/cs/data/college/college_pg01_tmpl.jhtml?schoolId=81
p1224
aVhttps://www.collegedata.com/cs/data/college/college_pg01_tmpl.jhtml?schoolId=96
p1225
aVhttps://www.collegedata.com/cs/data/college/college_pg01_tmpl.jhtml?schoolId=99
p1226
aVhttps://www.collegedata.com/cs/data/college/college_pg01_tmpl.jhtml?schoolId=106
p1227
aVhttps://www.collegedata.com/cs/data/college/college_pg01_tmpl.jhtml?schoolId=109
p1228
aVhttps://www.collegedata.com/cs/data/college/college_pg01_tmpl.jhtml?schoolId=111
p1229
aVhttps://www.collegedata.com/cs/data/college/college_pg01_tmpl.jhtml?schoolId=113
p1230
aVhttps://www.collegedata.com/cs/data/college/college_pg01_tmpl.jhtml?schoolId=112
p1231
aVhttps://www.collegedata.com/cs/data/college/college_pg01_tmpl.jhtml?schoolId=1163
p1232
aVhttps://www.collegedata.com/cs/data/college/college_pg01_tmpl.jhtml?schoolId=115
p1233
aVhttps://www.collegedata.com/cs/data/college/college_pg01_tmpl.jhtml?schoolId=3064
p1234
aVhttps://www.collegedata.com/cs/data/college/college_pg01_tmpl.jhtml?schoolId=1885
p1235
aVhttps://www.collegedata.com/cs/data/college/college_pg01_tmpl.jhtml?schoolId=3014
p1236
aVhttps://www.collegedata.com/cs/data/college/college_pg01_tmpl.jhtml?schoolId=1886
p1237
aVhttps://www.collegedata.com/cs/data/college/college_pg01_tmpl.jhtml?schoolId=1324
p1238
aVhttps://www.collegedata.com/cs/data/college/college_pg01_tmpl.jhtml?schoolId=1888
p1239
aVhttps://www.collegedata.com/cs/data/college/college_pg01_tmpl.jhtml?schoolId=3065
p1240
aVhttps://www.collegedata.com/cs/data/college/college_pg01_tmpl.jhtml?schoolId=3015
p1241
aVhttps://www.collegedata.com/cs/data/college/college_pg01_tmpl.jhtml?schoolId=38
p1242
aVhttps://www.collegedata.com/cs/data/college/college_pg01_tmpl.jhtml?schoolId=43
p1243
aVhttps://www.collegedata.com/cs/data/college/college_pg01_tmpl.jhtml?schoolId=49
p1244
aVhttps://www.collegedata.com/cs/data/college/college_pg01_tmpl.jhtml?schoolId=54
p1245
aVhttps://www.collegedata.com/cs/data/college/college_pg01_tmpl.jhtml?schoolId=70
p1246
aVhttps://www.collegedata.com/cs/data/college/college_pg01_tmpl.jhtml?schoolId=82
p1247
aVhttps://www.collegedata.com/cs/data/college/college_pg01_tmpl.jhtml?schoolId=88
p1248
aVhttps://www.collegedata.com/cs/data/college/college_pg01_tmpl.jhtml?schoolId=93
p1249
aVhttps://www.collegedata.com/cs/data/college/college_pg01_tmpl.jhtml?schoolId=97
p1250
aVhttps://www.collegedata.com/cs/data/college/college_pg01_tmpl.jhtml?schoolId=108
p1251
aVhttps://www.collegedata.com/cs/data/college/college_pg01_tmpl.jhtml?schoolId=123
p1252
aVhttps://www.collegedata.com/cs/data/college/college_pg01_tmpl.jhtml?schoolId=150
p1253
aVhttps://www.collegedata.com/cs/data/college/college_pg01_tmpl.jhtml?schoolId=1061
p1254
aVhttps://www.collegedata.com/cs/data/college/college_pg01_tmpl.jhtml?schoolId=1441
p1255
aVhttps://www.collegedata.com/cs/data/college/college_pg01_tmpl.jhtml?schoolId=1440
p1256
aVhttps://www.collegedata.com/cs/data/college/college_pg01_tmpl.jhtml?schoolId=1442
p1257
aVhttps://www.collegedata.com/cs/data/college/college_pg01_tmpl.jhtml?schoolId=1248
p1258
aVhttps://www.collegedata.com/cs/data/college/college_pg01_tmpl.jhtml?schoolId=16
p1259
aVhttps://www.collegedata.com/cs/data/college/college_pg01_tmpl.jhtml?schoolId=19
p1260
aVhttps://www.collegedata.com/cs/data/college/college_pg01_tmpl.jhtml?schoolId=25
p1261
aVhttps://www.collegedata.com/cs/data/college/college_pg01_tmpl.jhtml?schoolId=34
p1262
aVhttps://www.collegedata.com/cs/data/college/college_pg01_tmpl.jhtml?schoolId=37
p1263
aVhttps://www.collegedata.com/cs/data/college/college_pg01_tmpl.jhtml?schoolId=39
p1264
aVhttps://www.collegedata.com/cs/data/college/college_pg01_tmpl.jhtml?schoolId=42
p1265
aVhttps://www.collegedata.com/cs/data/college/college_pg01_tmpl.jhtml?schoolId=44
p1266
aVhttps://www.collegedata.com/cs/data/college/college_pg01_tmpl.jhtml?schoolId=45
p1267
aVhttps://www.collegedata.com/cs/data/college/college_pg01_tmpl.jhtml?schoolId=46
p1268
aVhttps://www.collegedata.com/cs/data/college/college_pg01_tmpl.jhtml?schoolId=188
p1269
aVhttps://www.collegedata.com/cs/data/college/college_pg01_tmpl.jhtml?schoolId=48
p1270
aVhttps://www.collegedata.com/cs/data/college/college_pg01_tmpl.jhtml?schoolId=51
p1271
aVhttps://www.collegedata.com/cs/data/college/college_pg01_tmpl.jhtml?schoolId=3042
p1272
aVhttps://www.collegedata.com/cs/data/college/college_pg01_tmpl.jhtml?schoolId=53
p1273
aVhttps://www.collegedata.com/cs/data/college/college_pg01_tmpl.jhtml?schoolId=55
p1274
aVhttps://www.collegedata.com/cs/data/college/college_pg01_tmpl.jhtml?schoolId=56
p1275
aVhttps://www.collegedata.com/cs/data/college/college_pg01_tmpl.jhtml?schoolId=57
p1276
aVhttps://www.collegedata.com/cs/data/college/college_pg01_tmpl.jhtml?schoolId=60
p1277
aVhttps://www.collegedata.com/cs/data/college/college_pg01_tmpl.jhtml?schoolId=61
p1278
aVhttps://www.collegedata.com/cs/data/college/college_pg01_tmpl.jhtml?schoolId=64
p1279
aVhttps://www.collegedata.com/cs/data/college/college_pg01_tmpl.jhtml?schoolId=1165
p1280
aVhttps://www.collegedata.com/cs/data/college/college_pg01_tmpl.jhtml?schoolId=68
p1281
aVhttps://www.collegedata.com/cs/data/college/college_pg01_tmpl.jhtml?schoolId=69
p1282
aVhttps://www.collegedata.com/cs/data/college/college_pg01_tmpl.jhtml?schoolId=20
p1283
aVhttps://www.collegedata.com/cs/data/college/college_pg01_tmpl.jhtml?schoolId=1892
p1284
aVhttps://www.collegedata.com/cs/data/college/college_pg01_tmpl.jhtml?schoolId=24
p1285
aVhttps://www.collegedata.com/cs/data/college/college_pg01_tmpl.jhtml?schoolId=27
p1286
aVhttps://www.collegedata.com/cs/data/college/college_pg01_tmpl.jhtml?schoolId=29
p1287
aVhttps://www.collegedata.com/cs/data/college/college_pg01_tmpl.jhtml?schoolId=33
p1288
aVhttps://www.collegedata.com/cs/data/college/college_pg01_tmpl.jhtml?schoolId=17
p1289
aVhttps://www.collegedata.com/cs/data/college/college_pg01_tmpl.jhtml?schoolId=31
p1290
aVhttps://www.collegedata.com/cs/data/college/college_pg01_tmpl.jhtml?schoolId=36
p1291
aVhttps://www.collegedata.com/cs/data/college/college_pg01_tmpl.jhtml?schoolId=41
p1292
aVhttps://www.collegedata.com/cs/data/college/college_pg01_tmpl.jhtml?schoolId=92
p1293
aVhttps://www.collegedata.com/cs/data/college/college_pg01_tmpl.jhtml?schoolId=98
p1294
aVhttps://www.collegedata.com/cs/data/college/college_pg01_tmpl.jhtml?schoolId=103
p1295
aVhttps://www.collegedata.com/cs/data/college/college_pg01_tmpl.jhtml?schoolId=110
p1296
aVhttps://www.collegedata.com/cs/data/college/college_pg01_tmpl.jhtml?schoolId=1302
p1297
aVhttps://www.collegedata.com/cs/data/college/college_pg01_tmpl.jhtml?schoolId=94
p1298
aVhttps://www.collegedata.com/cs/data/college/college_pg01_tmpl.jhtml?schoolId=114
p1299
aVhttps://www.collegedata.com/cs/data/college/college_pg01_tmpl.jhtml?schoolId=118
p1300
aVhttps://www.collegedata.com/cs/data/college/college_pg01_tmpl.jhtml?schoolId=107
p1301
aVhttps://www.collegedata.com/cs/data/college/college_pg01_tmpl.jhtml?schoolId=120
p1302
aVhttps://www.collegedata.com/cs/data/college/college_pg01_tmpl.jhtml?schoolId=95
p1303
aVhttps://www.collegedata.com/cs/data/college/college_pg01_tmpl.jhtml?schoolId=100
p1304
aVhttps://www.collegedata.com/cs/data/college/college_pg01_tmpl.jhtml?schoolId=105
p1305
aVhttps://www.collegedata.com/cs/data/college/college_pg01_tmpl.jhtml?schoolId=580
p1306
aVhttps://www.collegedata.com/cs/data/college/college_pg01_tmpl.jhtml?schoolId=71
p1307
aVhttps://www.collegedata.com/cs/data/college/college_pg01_tmpl.jhtml?schoolId=73
p1308
aVhttps://www.collegedata.com/cs/data/college/college_pg01_tmpl.jhtml?schoolId=75
p1309
aVhttps://www.collegedata.com/cs/data/college/college_pg01_tmpl.jhtml?schoolId=86
p1310
aVhttps://www.collegedata.com/cs/data/college/college_pg01_tmpl.jhtml?schoolId=78
p1311
aVhttps://www.collegedata.com/cs/data/college/college_pg01_tmpl.jhtml?schoolId=124
p1312
aVhttps://www.collegedata.com/cs/data/college/college_pg01_tmpl.jhtml?schoolId=127
p1313
aVhttps://www.collegedata.com/cs/data/college/college_pg01_tmpl.jhtml?schoolId=130
p1314
aVhttps://www.collegedata.com/cs/data/college/college_pg01_tmpl.jhtml?schoolId=1325
p1315
aVhttps://www.collegedata.com/cs/data/college/college_pg01_tmpl.jhtml?schoolId=1895
p1316
aVhttps://www.collegedata.com/cs/data/college/college_pg01_tmpl.jhtml?schoolId=1896
p1317
aVhttps://www.collegedata.com/cs/data/college/college_pg01_tmpl.jhtml?schoolId=1897
p1318
aVhttps://www.collegedata.com/cs/data/college/college_pg01_tmpl.jhtml?schoolId=137
p1319
aVhttps://www.collegedata.com/cs/data/college/college_pg01_tmpl.jhtml?schoolId=148
p1320
aVhttps://www.collegedata.com/cs/data/college/college_pg01_tmpl.jhtml?schoolId=1326
p1321
aVhttps://www.collegedata.com/cs/data/college/college_pg01_tmpl.jhtml?schoolId=1950
p1322
aVhttps://www.collegedata.com/cs/data/college/college_pg01_tmpl.jhtml?schoolId=3327
p1323
aVhttps://www.collegedata.com/cs/data/college/college_pg01_tmpl.jhtml?schoolId=3253
p1324
aVhttps://www.collegedata.com/cs/data/college/college_pg01_tmpl.jhtml?schoolId=142
p1325
aVhttps://www.collegedata.com/cs/data/college/college_pg01_tmpl.jhtml?schoolId=133
p1326
aVhttps://www.collegedata.com/cs/data/college/college_pg01_tmpl.jhtml?schoolId=1223
p1327
aVhttps://www.collegedata.com/cs/data/college/college_pg01_tmpl.jhtml?schoolId=145
p1328
aVhttps://www.collegedata.com/cs/data/college/college_pg01_tmpl.jhtml?schoolId=570
p1329
aVhttps://www.collegedata.com/cs/data/college/college_pg01_tmpl.jhtml?schoolId=3043
p1330
aVhttps://www.collegedata.com/cs/data/college/college_pg01_tmpl.jhtml?schoolId=147
p1331
aVhttps://www.collegedata.com/cs/data/college/college_pg01_tmpl.jhtml?schoolId=151
p1332
aVhttps://www.collegedata.com/cs/data/college/college_pg01_tmpl.jhtml?schoolId=155
p1333
aVhttps://www.collegedata.com/cs/data/college/college_pg01_tmpl.jhtml?schoolId=157
p1334
aVhttps://www.collegedata.com/cs/data/college/college_pg01_tmpl.jhtml?schoolId=159
p1335
aVhttps://www.collegedata.com/cs/data/college/college_pg01_tmpl.jhtml?schoolId=164
p1336
aVhttps://www.collegedata.com/cs/data/college/college_pg01_tmpl.jhtml?schoolId=165
p1337
aVhttps://www.collegedata.com/cs/data/college/college_pg01_tmpl.jhtml?schoolId=1900
p1338
aVhttps://www.collegedata.com/cs/data/college/college_pg01_tmpl.jhtml?schoolId=168
p1339
aVhttps://www.collegedata.com/cs/data/college/college_pg01_tmpl.jhtml?schoolId=80
p1340
aVhttps://www.collegedata.com/cs/data/college/college_pg01_tmpl.jhtml?schoolId=84
p1341
aVhttps://www.collegedata.com/cs/data/college/college_pg01_tmpl.jhtml?schoolId=156
p1342
aVhttps://www.collegedata.com/cs/data/college/college_pg01_tmpl.jhtml?schoolId=401
p1343
aVhttps://www.collegedata.com/cs/data/college/college_pg01_tmpl.jhtml?schoolId=416
p1344
aVhttps://www.collegedata.com/cs/data/college/college_pg01_tmpl.jhtml?schoolId=122
p1345
aVhttps://www.collegedata.com/cs/data/college/college_pg01_tmpl.jhtml?schoolId=271
p1346
aVhttps://www.collegedata.com/cs/data/college/college_pg01_tmpl.jhtml?schoolId=129
p1347
aVhttps://www.collegedata.com/cs/data/college/college_pg01_tmpl.jhtml?schoolId=131
p1348
aVhttps://www.collegedata.com/cs/data/college/college_pg01_tmpl.jhtml?schoolId=139
p1349
aVhttps://www.collegedata.com/cs/data/college/college_pg01_tmpl.jhtml?schoolId=141
p1350
aVhttps://www.collegedata.com/cs/data/college/college_pg01_tmpl.jhtml?schoolId=193
p1351
aVhttps://www.collegedata.com/cs/data/college/college_pg01_tmpl.jhtml?schoolId=197
p1352
aVhttps://www.collegedata.com/cs/data/college/college_pg01_tmpl.jhtml?schoolId=63
p1353
aVhttps://www.collegedata.com/cs/data/college/college_pg01_tmpl.jhtml?schoolId=1813
p1354
aVhttps://www.collegedata.com/cs/data/college/college_pg01_tmpl.jhtml?schoolId=1816
p1355
aVhttps://www.collegedata.com/cs/data/college/college_pg01_tmpl.jhtml?schoolId=433
p1356
aVhttps://www.collegedata.com/cs/data/college/college_pg01_tmpl.jhtml?schoolId=517
p1357
aVhttps://www.collegedata.com/cs/data/college/college_pg01_tmpl.jhtml?schoolId=434
p1358
aVhttps://www.collegedata.com/cs/data/college/college_pg01_tmpl.jhtml?schoolId=67
p1359
aVhttps://www.collegedata.com/cs/data/college/college_pg01_tmpl.jhtml?schoolId=3144
p1360
aVhttps://www.collegedata.com/cs/data/college/college_pg01_tmpl.jhtml?schoolId=85
p1361
aVhttps://www.collegedata.com/cs/data/college/college_pg01_tmpl.jhtml?schoolId=89
p1362
aVhttps://www.collegedata.com/cs/data/college/college_pg01_tmpl.jhtml?schoolId=1225
p1363
aVhttps://www.collegedata.com/cs/data/college/college_pg01_tmpl.jhtml?schoolId=91
p1364
aVhttps://www.collegedata.com/cs/data/college/college_pg01_tmpl.jhtml?schoolId=72
p1365
aVhttps://www.collegedata.com/cs/data/college/college_pg01_tmpl.jhtml?schoolId=117
p1366
aVhttps://www.collegedata.com/cs/data/college/college_pg01_tmpl.jhtml?schoolId=30
p1367
aVhttps://www.collegedata.com/cs/data/college/college_pg01_tmpl.jhtml?schoolId=47
p1368
aVhttps://www.collegedata.com/cs/data/college/college_pg01_tmpl.jhtml?schoolId=66
p1369
aVhttps://www.collegedata.com/cs/data/college/college_pg01_tmpl.jhtml?schoolId=183
p1370
aVhttps://www.collegedata.com/cs/data/college/college_pg01_tmpl.jhtml?schoolId=74
p1371
aVhttps://www.collegedata.com/cs/data/college/college_pg01_tmpl.jhtml?schoolId=77
p1372
aVhttps://www.collegedata.com/cs/data/college/college_pg01_tmpl.jhtml?schoolId=172
p1373
aVhttps://www.collegedata.com/cs/data/college/college_pg01_tmpl.jhtml?schoolId=3073
p1374
aVhttps://www.collegedata.com/cs/data/college/college_pg01_tmpl.jhtml?schoolId=173
p1375
aVhttps://www.collegedata.com/cs/data/college/college_pg01_tmpl.jhtml?schoolId=1281
p1376
aVhttps://www.collegedata.com/cs/data/college/college_pg01_tmpl.jhtml?schoolId=175
p1377
aVhttps://www.collegedata.com/cs/data/college/college_pg01_tmpl.jhtml?schoolId=1246
p1378
aVhttps://www.collegedata.com/cs/data/college/college_pg01_tmpl.jhtml?schoolId=573
p1379
aVhttps://www.collegedata.com/cs/data/college/college_pg01_tmpl.jhtml?schoolId=185
p1380
aVhttps://www.collegedata.com/cs/data/college/college_pg01_tmpl.jhtml?schoolId=189
p1381
aVhttps://www.collegedata.com/cs/data/college/college_pg01_tmpl.jhtml?schoolId=190
p1382
aVhttps://www.collegedata.com/cs/data/college/college_pg01_tmpl.jhtml?schoolId=192
p1383
aVhttps://www.collegedata.com/cs/data/college/college_pg01_tmpl.jhtml?schoolId=194
p1384
aVhttps://www.collegedata.com/cs/data/college/college_pg01_tmpl.jhtml?schoolId=195
p1385
aVhttps://www.collegedata.com/cs/data/college/college_pg01_tmpl.jhtml?schoolId=199
p1386
aVhttps://www.collegedata.com/cs/data/college/college_pg01_tmpl.jhtml?schoolId=202
p1387
aVhttps://www.collegedata.com/cs/data/college/college_pg01_tmpl.jhtml?schoolId=205
p1388
aVhttps://www.collegedata.com/cs/data/college/college_pg01_tmpl.jhtml?schoolId=207
p1389
aVhttps://www.collegedata.com/cs/data/college/college_pg01_tmpl.jhtml?schoolId=211
p1390
aVhttps://www.collegedata.com/cs/data/college/college_pg01_tmpl.jhtml?schoolId=212
p1391
aVhttps://www.collegedata.com/cs/data/college/college_pg01_tmpl.jhtml?schoolId=214
p1392
aVhttps://www.collegedata.com/cs/data/college/college_pg01_tmpl.jhtml?schoolId=217
p1393
aVhttps://www.collegedata.com/cs/data/college/college_pg01_tmpl.jhtml?schoolId=221
p1394
aVhttps://www.collegedata.com/cs/data/college/college_pg01_tmpl.jhtml?schoolId=219
p1395
aVhttps://www.collegedata.com/cs/data/college/college_pg01_tmpl.jhtml?schoolId=222
p1396
aVhttps://www.collegedata.com/cs/data/college/college_pg01_tmpl.jhtml?schoolId=224
p1397
aVhttps://www.collegedata.com/cs/data/college/college_pg01_tmpl.jhtml?schoolId=226
p1398
aVhttps://www.collegedata.com/cs/data/college/college_pg01_tmpl.jhtml?schoolId=229
p1399
aVhttps://www.collegedata.com/cs/data/college/college_pg01_tmpl.jhtml?schoolId=230
p1400
aVhttps://www.collegedata.com/cs/data/college/college_pg01_tmpl.jhtml?schoolId=234
p1401
aVhttps://www.collegedata.com/cs/data/college/college_pg01_tmpl.jhtml?schoolId=240
p1402
aVhttps://www.collegedata.com/cs/data/college/college_pg01_tmpl.jhtml?schoolId=244
p1403
aVhttps://www.collegedata.com/cs/data/college/college_pg01_tmpl.jhtml?schoolId=1907
p1404
aVhttps://www.collegedata.com/cs/data/college/college_pg01_tmpl.jhtml?schoolId=3066
p1405
aVhttps://www.collegedata.com/cs/data/college/college_pg01_tmpl.jhtml?schoolId=1908
p1406
aVhttps://www.collegedata.com/cs/data/college/college_pg01_tmpl.jhtml?schoolId=3067
p1407
aVhttps://www.collegedata.com/cs/data/college/college_pg01_tmpl.jhtml?schoolId=3068
p1408
aVhttps://www.collegedata.com/cs/data/college/college_pg01_tmpl.jhtml?schoolId=1911
p1409
aVhttps://www.collegedata.com/cs/data/college/college_pg01_tmpl.jhtml?schoolId=1999
p1410
aVhttps://www.collegedata.com/cs/data/college/college_pg01_tmpl.jhtml?schoolId=245
p1411
aVhttps://www.collegedata.com/cs/data/college/college_pg01_tmpl.jhtml?schoolId=1912
p1412
aVhttps://www.collegedata.com/cs/data/college/college_pg01_tmpl.jhtml?schoolId=1998
p1413
aVhttps://www.collegedata.com/cs/data/college/college_pg01_tmpl.jhtml?schoolId=3069
p1414
aVhttps://www.collegedata.com/cs/data/college/college_pg01_tmpl.jhtml?schoolId=1910
p1415
aVhttps://www.collegedata.com/cs/data/college/college_pg01_tmpl.jhtml?schoolId=3070
p1416
aVhttps://www.collegedata.com/cs/data/college/college_pg01_tmpl.jhtml?schoolId=3071
p1417
aVhttps://www.collegedata.com/cs/data/college/college_pg01_tmpl.jhtml?schoolId=3075
p1418
aVhttps://www.collegedata.com/cs/data/college/college_pg01_tmpl.jhtml?schoolId=3072
p1419
aVhttps://www.collegedata.com/cs/data/college/college_pg01_tmpl.jhtml?schoolId=791
p1420
aVhttps://www.collegedata.com/cs/data/college/college_pg01_tmpl.jhtml?schoolId=247
p1421
aVhttps://www.collegedata.com/cs/data/college/college_pg01_tmpl.jhtml?schoolId=2047
p1422
aVhttps://www.collegedata.com/cs/data/college/college_pg01_tmpl.jhtml?schoolId=1474
p1423
aVhttps://www.collegedata.com/cs/data/college/college_pg01_tmpl.jhtml?schoolId=470
p1424
aVhttps://www.collegedata.com/cs/data/college/college_pg01_tmpl.jhtml?schoolId=473
p1425
aVhttps://www.collegedata.com/cs/data/college/college_pg01_tmpl.jhtml?schoolId=1300
p1426
aVhttps://www.collegedata.com/cs/data/college/college_pg01_tmpl.jhtml?schoolId=3257
p1427
aVhttps://www.collegedata.com/cs/data/college/college_pg01_tmpl.jhtml?schoolId=3258
p1428
aVhttps://www.collegedata.com/cs/data/college/college_pg01_tmpl.jhtml?schoolId=475
p1429
aVhttps://www.collegedata.com/cs/data/college/college_pg01_tmpl.jhtml?schoolId=1252
p1430
aVhttps://www.collegedata.com/cs/data/college/college_pg01_tmpl.jhtml?schoolId=2060
p1431
aVhttps://www.collegedata.com/cs/data/college/college_pg01_tmpl.jhtml?schoolId=1348
p1432
aVhttps://www.collegedata.com/cs/data/college/college_pg01_tmpl.jhtml?schoolId=476
p1433
aVhttps://www.collegedata.com/cs/data/college/college_pg01_tmpl.jhtml?schoolId=2071
p1434
aVhttps://www.collegedata.com/cs/data/college/college_pg01_tmpl.jhtml?schoolId=2073
p1435
aVhttps://www.collegedata.com/cs/data/college/college_pg01_tmpl.jhtml?schoolId=2077
p1436
aVhttps://www.collegedata.com/cs/data/college/college_pg01_tmpl.jhtml?schoolId=2075
p1437
aVhttps://www.collegedata.com/cs/data/college/college_pg01_tmpl.jhtml?schoolId=483
p1438
aVhttps://www.collegedata.com/cs/data/college/college_pg01_tmpl.jhtml?schoolId=1303
p1439
aVhttps://www.collegedata.com/cs/data/college/college_pg01_tmpl.jhtml?schoolId=605
p1440
aVhttps://www.collegedata.com/cs/data/college/college_pg01_tmpl.jhtml?schoolId=3088
p1441
aVhttps://www.collegedata.com/cs/data/college/college_pg01_tmpl.jhtml?schoolId=492
p1442
aVhttps://www.collegedata.com/cs/data/college/college_pg01_tmpl.jhtml?schoolId=487
p1443
aVhttps://www.collegedata.com/cs/data/college/college_pg01_tmpl.jhtml?schoolId=495
p1444
aVhttps://www.collegedata.com/cs/data/college/college_pg01_tmpl.jhtml?schoolId=486
p1445
aVhttps://www.collegedata.com/cs/data/college/college_pg01_tmpl.jhtml?schoolId=1949
p1446
aVhttps://www.collegedata.com/cs/data/college/college_pg01_tmpl.jhtml?schoolId=498
p1447
aVhttps://www.collegedata.com/cs/data/college/college_pg01_tmpl.jhtml?schoolId=500
p1448
aVhttps://www.collegedata.com/cs/data/college/college_pg01_tmpl.jhtml?schoolId=501
p1449
aVhttps://www.collegedata.com/cs/data/college/college_pg01_tmpl.jhtml?schoolId=503
p1450
aVhttps://www.collegedata.com/cs/data/college/college_pg01_tmpl.jhtml?schoolId=504
p1451
aVhttps://www.collegedata.com/cs/data/college/college_pg01_tmpl.jhtml?schoolId=506
p1452
aVhttps://www.collegedata.com/cs/data/college/college_pg01_tmpl.jhtml?schoolId=586
p1453
aVhttps://www.collegedata.com/cs/data/college/college_pg01_tmpl.jhtml?schoolId=509
p1454
aVhttps://www.collegedata.com/cs/data/college/college_pg01_tmpl.jhtml?schoolId=510
p1455
aVhttps://www.collegedata.com/cs/data/college/college_pg01_tmpl.jhtml?schoolId=2050
p1456
aVhttps://www.collegedata.com/cs/data/college/college_pg01_tmpl.jhtml?schoolId=512
p1457
aVhttps://www.collegedata.com/cs/data/college/college_pg01_tmpl.jhtml?schoolId=513
p1458
aVhttps://www.collegedata.com/cs/data/college/college_pg01_tmpl.jhtml?schoolId=526
p1459
aVhttps://www.collegedata.com/cs/data/college/college_pg01_tmpl.jhtml?schoolId=1233
p1460
aVhttps://www.collegedata.com/cs/data/college/college_pg01_tmpl.jhtml?schoolId=1444
p1461
aVhttps://www.collegedata.com/cs/data/college/college_pg01_tmpl.jhtml?schoolId=621
p1462
aVhttps://www.collegedata.com/cs/data/college/college_pg01_tmpl.jhtml?schoolId=1445
p1463
aVhttps://www.collegedata.com/cs/data/college/college_pg01_tmpl.jhtml?schoolId=1447
p1464
aVhttps://www.collegedata.com/cs/data/college/college_pg01_tmpl.jhtml?schoolId=1830
p1465
aVhttps://www.collegedata.com/cs/data/college/college_pg01_tmpl.jhtml?schoolId=3049
p1466
aVhttps://www.collegedata.com/cs/data/college/college_pg01_tmpl.jhtml?schoolId=3077
p1467
aVhttps://www.collegedata.com/cs/data/college/college_pg01_tmpl.jhtml?schoolId=1449
p1468
aVhttps://www.collegedata.com/cs/data/college/college_pg01_tmpl.jhtml?schoolId=1451
p1469
aVhttps://www.collegedata.com/cs/data/college/college_pg01_tmpl.jhtml?schoolId=3213
p1470
aVhttps://www.collegedata.com/cs/data/college/college_pg01_tmpl.jhtml?schoolId=3216
p1471
aVhttps://www.collegedata.com/cs/data/college/college_pg01_tmpl.jhtml?schoolId=3216
p1472
aVhttps://www.collegedata.com/cs/data/college/college_pg01_tmpl.jhtml?schoolId=2096
p1473
aVhttps://www.collegedata.com/cs/data/college/college_pg01_tmpl.jhtml?schoolId=494
p1474
aVhttps://www.collegedata.com/cs/data/college/college_pg01_tmpl.jhtml?schoolId=3229
p1475
aVhttps://www.collegedata.com/cs/data/college/college_pg01_tmpl.jhtml?schoolId=1249
p1476
aVhttps://www.collegedata.com/cs/data/college/college_pg01_tmpl.jhtml?schoolId=288
p1477
aVhttps://www.collegedata.com/cs/data/college/college_pg01_tmpl.jhtml?schoolId=1460
p1478
aVhttps://www.collegedata.com/cs/data/college/college_pg01_tmpl.jhtml?schoolId=3266
p1479
aVhttps://www.collegedata.com/cs/data/college/college_pg01_tmpl.jhtml?schoolId=1450
p1480
aVhttps://www.collegedata.com/cs/data/college/college_pg01_tmpl.jhtml?schoolId=1462
p1481
aVhttps://www.collegedata.com/cs/data/college/college_pg01_tmpl.jhtml?schoolId=1264
p1482
aVhttps://www.collegedata.com/cs/data/college/college_pg01_tmpl.jhtml?schoolId=1463
p1483
aVhttps://www.collegedata.com/cs/data/college/college_pg01_tmpl.jhtml?schoolId=1645
p1484
aVhttps://www.collegedata.com/cs/data/college/college_pg01_tmpl.jhtml?schoolId=1464
p1485
aVhttps://www.collegedata.com/cs/data/college/college_pg01_tmpl.jhtml?schoolId=1457
p1486
aVhttps://www.collegedata.com/cs/data/college/college_pg01_tmpl.jhtml?schoolId=3221
p1487
aVhttps://www.collegedata.com/cs/data/college/college_pg01_tmpl.jhtml?schoolId=1593
p1488
aVhttps://www.collegedata.com/cs/data/college/college_pg01_tmpl.jhtml?schoolId=1465
p1489
aVhttps://www.collegedata.com/cs/data/college/college_pg01_tmpl.jhtml?schoolId=1466
p1490
aVhttps://www.collegedata.com/cs/data/college/college_pg01_tmpl.jhtml?schoolId=1468
p1491
aVhttps://www.collegedata.com/cs/data/college/college_pg01_tmpl.jhtml?schoolId=1469
p1492
aVhttps://www.collegedata.com/cs/data/college/college_pg01_tmpl.jhtml?schoolId=1470
p1493
aVhttps://www.collegedata.com/cs/data/college/college_pg01_tmpl.jhtml?schoolId=1471
p1494
aVhttps://www.collegedata.com/cs/data/college/college_pg01_tmpl.jhtml?schoolId=1153
p1495
aVhttps://www.collegedata.com/cs/data/college/college_pg01_tmpl.jhtml?schoolId=1836
p1496
aVhttps://www.collegedata.com/cs/data/college/college_pg01_tmpl.jhtml?schoolId=895
p1497
aVhttps://www.collegedata.com/cs/data/college/college_pg01_tmpl.jhtml?schoolId=847
p1498
aVhttps://www.collegedata.com/cs/data/college/college_pg01_tmpl.jhtml?schoolId=1495
p1499
aVhttps://www.collegedata.com/cs/data/college/college_pg01_tmpl.jhtml?schoolId=617
p1500
aVhttps://www.collegedata.com/cs/data/college/college_pg01_tmpl.jhtml?schoolId=1946
p1501
aVhttps://www.collegedata.com/cs/data/college/college_pg01_tmpl.jhtml?schoolId=600
p1502
aVhttps://www.collegedata.com/cs/data/college/college_pg01_tmpl.jhtml?schoolId=1668
p1503
aVhttps://www.collegedata.com/cs/data/college/college_pg01_tmpl.jhtml?schoolId=3346
p1504
aVhttps://www.collegedata.com/cs/data/college/college_pg01_tmpl.jhtml?schoolId=1026
p1505
aVhttps://www.collegedata.com/cs/data/college/college_pg01_tmpl.jhtml?schoolId=3268
p1506
aVhttps://www.collegedata.com/cs/data/college/college_pg01_tmpl.jhtml?schoolId=1028
p1507
aVhttps://www.collegedata.com/cs/data/college/college_pg01_tmpl.jhtml?schoolId=1029
p1508
aVhttps://www.collegedata.com/cs/data/college/college_pg01_tmpl.jhtml?schoolId=1475
p1509
aVhttps://www.collegedata.com/cs/data/college/college_pg01_tmpl.jhtml?schoolId=1213
p1510
aVhttps://www.collegedata.com/cs/data/college/college_pg01_tmpl.jhtml?schoolId=1021
p1511
aVhttps://www.collegedata.com/cs/data/college/college_pg01_tmpl.jhtml?schoolId=1202
p1512
aVhttps://www.collegedata.com/cs/data/college/college_pg01_tmpl.jhtml?schoolId=1538
p1513
aVhttps://www.collegedata.com/cs/data/college/college_pg01_tmpl.jhtml?schoolId=3024
p1514
aVhttps://www.collegedata.com/cs/data/college/college_pg01_tmpl.jhtml?schoolId=1291
p1515
aVhttps://www.collegedata.com/cs/data/college/college_pg01_tmpl.jhtml?schoolId=1203
p1516
aVhttps://www.collegedata.com/cs/data/college/college_pg01_tmpl.jhtml?schoolId=1039
p1517
aVhttps://www.collegedata.com/cs/data/college/college_pg01_tmpl.jhtml?schoolId=807
p1518
aVhttps://www.collegedata.com/cs/data/college/college_pg01_tmpl.jhtml?schoolId=3222
p1519
aVhttps://www.collegedata.com/cs/data/college/college_pg01_tmpl.jhtml?schoolId=588
p1520
aVhttps://www.collegedata.com/cs/data/college/college_pg01_tmpl.jhtml?schoolId=3017
p1521
aVhttps://www.collegedata.com/cs/data/college/college_pg01_tmpl.jhtml?schoolId=2063
p1522
aVhttps://www.collegedata.com/cs/data/college/college_pg01_tmpl.jhtml?schoolId=890
p1523
aVhttps://www.collegedata.com/cs/data/college/college_pg01_tmpl.jhtml?schoolId=1036
p1524
aVhttps://www.collegedata.com/cs/data/college/college_pg01_tmpl.jhtml?schoolId=1204
p1525
aVhttps://www.collegedata.com/cs/data/college/college_pg01_tmpl.jhtml?schoolId=920
p1526
aVhttps://www.collegedata.com/cs/data/college/college_pg01_tmpl.jhtml?schoolId=1037
p1527
aVhttps://www.collegedata.com/cs/data/college/college_pg01_tmpl.jhtml?schoolId=1496
p1528
aVhttps://www.collegedata.com/cs/data/college/college_pg01_tmpl.jhtml?schoolId=2057
p1529
aVhttps://www.collegedata.com/cs/data/college/college_pg01_tmpl.jhtml?schoolId=527
p1530
aVhttps://www.collegedata.com/cs/data/college/college_pg01_tmpl.jhtml?schoolId=534
p1531
aVhttps://www.collegedata.com/cs/data/college/college_pg01_tmpl.jhtml?schoolId=882
p1532
aVhttps://www.collegedata.com/cs/data/college/college_pg01_tmpl.jhtml?schoolId=823
p1533
aVhttps://www.collegedata.com/cs/data/college/college_pg01_tmpl.jhtml?schoolId=1033
p1534
aVhttps://www.collegedata.com/cs/data/college/college_pg01_tmpl.jhtml?schoolId=1040
p1535
aVhttps://www.collegedata.com/cs/data/college/college_pg01_tmpl.jhtml?schoolId=817
p1536
aVhttps://www.collegedata.com/cs/data/college/college_pg01_tmpl.jhtml?schoolId=1027
p1537
aVhttps://www.collegedata.com/cs/data/college/college_pg01_tmpl.jhtml?schoolId=1476
p1538
aVhttps://www.collegedata.com/cs/data/college/college_pg01_tmpl.jhtml?schoolId=1498
p1539
aVhttps://www.collegedata.com/cs/data/college/college_pg01_tmpl.jhtml?schoolId=2070
p1540
aVhttps://www.collegedata.com/cs/data/college/college_pg01_tmpl.jhtml?schoolId=1477
p1541
aVhttps://www.collegedata.com/cs/data/college/college_pg01_tmpl.jhtml?schoolId=1044
p1542
aVhttps://www.collegedata.com/cs/data/college/college_pg01_tmpl.jhtml?schoolId=901
p1543
aVhttps://www.collegedata.com/cs/data/college/college_pg01_tmpl.jhtml?schoolId=1038
p1544
aVhttps://www.collegedata.com/cs/data/college/college_pg01_tmpl.jhtml?schoolId=1537
p1545
aVhttps://www.collegedata.com/cs/data/college/college_pg01_tmpl.jhtml?schoolId=1182
p1546
aVhttps://www.collegedata.com/cs/data/college/college_pg01_tmpl.jhtml?schoolId=974
p1547
aVhttps://www.collegedata.com/cs/data/college/college_pg01_tmpl.jhtml?schoolId=2095
p1548
aVhttps://www.collegedata.com/cs/data/college/college_pg01_tmpl.jhtml?schoolId=1478
p1549
aVhttps://www.collegedata.com/cs/data/college/college_pg01_tmpl.jhtml?schoolId=1504
p1550
aVhttps://www.collegedata.com/cs/data/college/college_pg01_tmpl.jhtml?schoolId=1502
p1551
aVhttps://www.collegedata.com/cs/data/college/college_pg01_tmpl.jhtml?schoolId=1500
p1552
aVhttps://www.collegedata.com/cs/data/college/college_pg01_tmpl.jhtml?schoolId=1206
p1553
aVhttps://www.collegedata.com/cs/data/college/college_pg01_tmpl.jhtml?schoolId=1479
p1554
aVhttps://www.collegedata.com/cs/data/college/college_pg01_tmpl.jhtml?schoolId=1034
p1555
aVhttps://www.collegedata.com/cs/data/college/college_pg01_tmpl.jhtml?schoolId=1814
p1556
aVhttps://www.collegedata.com/cs/data/college/college_pg01_tmpl.jhtml?schoolId=838
p1557
aVhttps://www.collegedata.com/cs/data/college/college_pg01_tmpl.jhtml?schoolId=1041
p1558
aVhttps://www.collegedata.com/cs/data/college/college_pg01_tmpl.jhtml?schoolId=1480
p1559
aVhttps://www.collegedata.com/cs/data/college/college_pg01_tmpl.jhtml?schoolId=1030
p1560
aVhttps://www.collegedata.com/cs/data/college/college_pg01_tmpl.jhtml?schoolId=3038
p1561
aVhttps://www.collegedata.com/cs/data/college/college_pg01_tmpl.jhtml?schoolId=1481
p1562
aVhttps://www.collegedata.com/cs/data/college/college_pg01_tmpl.jhtml?schoolId=1852
p1563
aVhttps://www.collegedata.com/cs/data/college/college_pg01_tmpl.jhtml?schoolId=558
p1564
aVhttps://www.collegedata.com/cs/data/college/college_pg01_tmpl.jhtml?schoolId=1482
p1565
aVhttps://www.collegedata.com/cs/data/college/college_pg01_tmpl.jhtml?schoolId=1508
p1566
aVhttps://www.collegedata.com/cs/data/college/college_pg01_tmpl.jhtml?schoolId=1024
p1567
aVhttps://www.collegedata.com/cs/data/college/college_pg01_tmpl.jhtml?schoolId=582
p1568
aVhttps://www.collegedata.com/cs/data/college/college_pg01_tmpl.jhtml?schoolId=1177
p1569
aVhttps://www.collegedata.com/cs/data/college/college_pg01_tmpl.jhtml?schoolId=1809
p1570
aVhttps://www.collegedata.com/cs/data/college/college_pg01_tmpl.jhtml?schoolId=1835
p1571
aVhttps://www.collegedata.com/cs/data/college/college_pg01_tmpl.jhtml?schoolId=1343
p1572
aVhttps://www.collegedata.com/cs/data/college/college_pg01_tmpl.jhtml?schoolId=1509
p1573
aVhttps://www.collegedata.com/cs/data/college/college_pg01_tmpl.jhtml?schoolId=1403
p1574
aVhttps://www.collegedata.com/cs/data/college/college_pg01_tmpl.jhtml?schoolId=3078
p1575
aVhttps://www.collegedata.com/cs/data/college/college_pg01_tmpl.jhtml?schoolId=970
p1576
aVhttps://www.collegedata.com/cs/data/college/college_pg01_tmpl.jhtml?schoolId=1330
p1577
aVhttps://www.collegedata.com/cs/data/college/college_pg01_tmpl.jhtml?schoolId=3208
p1578
aVhttps://www.collegedata.com/cs/data/college/college_pg01_tmpl.jhtml?schoolId=1503
p1579
aVhttps://www.collegedata.com/cs/data/college/college_pg01_tmpl.jhtml?schoolId=1486
p1580
aVhttps://www.collegedata.com/cs/data/college/college_pg01_tmpl.jhtml?schoolId=1519
p1581
aVhttps://www.collegedata.com/cs/data/college/college_pg01_tmpl.jhtml?schoolId=1250
p1582
aVhttps://www.collegedata.com/cs/data/college/college_pg01_tmpl.jhtml?schoolId=1518
p1583
aVhttps://www.collegedata.com/cs/data/college/college_pg01_tmpl.jhtml?schoolId=1531
p1584
aVhttps://www.collegedata.com/cs/data/college/college_pg01_tmpl.jhtml?schoolId=1234
p1585
aVhttps://www.collegedata.com/cs/data/college/college_pg01_tmpl.jhtml?schoolId=1489
p1586
aVhttps://www.collegedata.com/cs/data/college/college_pg01_tmpl.jhtml?schoolId=1053
p1587
aVhttps://www.collegedata.com/cs/data/college/college_pg01_tmpl.jhtml?schoolId=1490
p1588
aVhttps://www.collegedata.com/cs/data/college/college_pg01_tmpl.jhtml?schoolId=840
p1589
aVhttps://www.collegedata.com/cs/data/college/college_pg01_tmpl.jhtml?schoolId=2052
p1590
aVhttps://www.collegedata.com/cs/data/college/college_pg01_tmpl.jhtml?schoolId=1535
p1591
aVhttps://www.collegedata.com/cs/data/college/college_pg01_tmpl.jhtml?schoolId=511
p1592
aVhttps://www.collegedata.com/cs/data/college/college_pg01_tmpl.jhtml?schoolId=1492
p1593
aVhttps://www.collegedata.com/cs/data/college/college_pg01_tmpl.jhtml?schoolId=885
p1594
aVhttps://www.collegedata.com/cs/data/college/college_pg01_tmpl.jhtml?schoolId=898
p1595
aVhttps://www.collegedata.com/cs/data/college/college_pg01_tmpl.jhtml?schoolId=1055
p1596
aVhttps://www.collegedata.com/cs/data/college/college_pg01_tmpl.jhtml?schoolId=1525
p1597
aVhttps://www.collegedata.com/cs/data/college/college_pg01_tmpl.jhtml?schoolId=826
p1598
aVhttps://www.collegedata.com/cs/data/college/college_pg01_tmpl.jhtml?schoolId=1253
p1599
aVhttps://www.collegedata.com/cs/data/college/college_pg01_tmpl.jhtml?schoolId=1071
p1600
aVhttps://www.collegedata.com/cs/data/college/college_pg01_tmpl.jhtml?schoolId=1088
p1601
aVhttps://www.collegedata.com/cs/data/college/college_pg01_tmpl.jhtml?schoolId=1494
p1602
aVhttps://www.collegedata.com/cs/data/college/college_pg01_tmpl.jhtml?schoolId=1344
p1603
aVhttps://www.collegedata.com/cs/data/college/college_pg01_tmpl.jhtml?schoolId=3321
p1604
aVhttps://www.collegedata.com/cs/data/college/college_pg01_tmpl.jhtml?schoolId=1280
p1605
aVhttps://www.collegedata.com/cs/data/college/college_pg01_tmpl.jhtml?schoolId=1517
p1606
aVhttps://www.collegedata.com/cs/data/college/college_pg01_tmpl.jhtml?schoolId=1524
p1607
aVhttps://www.collegedata.com/cs/data/college/college_pg01_tmpl.jhtml?schoolId=1054
p1608
aVhttps://www.collegedata.com/cs/data/college/college_pg01_tmpl.jhtml?schoolId=282
p1609
aVhttps://www.collegedata.com/cs/data/college/college_pg01_tmpl.jhtml?schoolId=1059
p1610
aVhttps://www.collegedata.com/cs/data/college/college_pg01_tmpl.jhtml?schoolId=1339
p1611
aVhttps://www.collegedata.com/cs/data/college/college_pg01_tmpl.jhtml?schoolId=1522
p1612
aVhttps://www.collegedata.com/cs/data/college/college_pg01_tmpl.jhtml?schoolId=893
p1613
aVhttps://www.collegedata.com/cs/data/college/college_pg01_tmpl.jhtml?schoolId=1079
p1614
aVhttps://www.collegedata.com/cs/data/college/college_pg01_tmpl.jhtml?schoolId=1520
p1615
aVhttps://www.collegedata.com/cs/data/college/college_pg01_tmpl.jhtml?schoolId=1092
p1616
aVhttps://www.collegedata.com/cs/data/college/college_pg01_tmpl.jhtml?schoolId=1598
p1617
aVhttps://www.collegedata.com/cs/data/college/college_pg01_tmpl.jhtml?schoolId=1604
p1618
aVhttps://www.collegedata.com/cs/data/college/college_pg01_tmpl.jhtml?schoolId=1345
p1619
aVhttps://www.collegedata.com/cs/data/college/college_pg01_tmpl.jhtml?schoolId=1610
p1620
aVhttps://www.collegedata.com/cs/data/college/college_pg01_tmpl.jhtml?schoolId=1611
p1621
aVhttps://www.collegedata.com/cs/data/college/college_pg01_tmpl.jhtml?schoolId=1613
p1622
aVhttps://www.collegedata.com/cs/data/college/college_pg01_tmpl.jhtml?schoolId=1349
p1623
aVhttps://www.collegedata.com/cs/data/college/college_pg01_tmpl.jhtml?schoolId=1614
p1624
aVhttps://www.collegedata.com/cs/data/college/college_pg01_tmpl.jhtml?schoolId=1618
p1625
aVhttps://www.collegedata.com/cs/data/college/college_pg01_tmpl.jhtml?schoolId=1619
p1626
aVhttps://www.collegedata.com/cs/data/college/college_pg01_tmpl.jhtml?schoolId=2037
p1627
aVhttps://www.collegedata.com/cs/data/college/college_pg01_tmpl.jhtml?schoolId=1883
p1628
aVhttps://www.collegedata.com/cs/data/college/college_pg01_tmpl.jhtml?schoolId=979
p1629
aVhttps://www.collegedata.com/cs/data/college/college_pg01_tmpl.jhtml?schoolId=1621
p1630
aVhttps://www.collegedata.com/cs/data/college/college_pg01_tmpl.jhtml?schoolId=1296
p1631
aVhttps://www.collegedata.com/cs/data/college/college_pg01_tmpl.jhtml?schoolId=1333
p1632
aVhttps://www.collegedata.com/cs/data/college/college_pg01_tmpl.jhtml?schoolId=1623
p1633
aVhttps://www.collegedata.com/cs/data/college/college_pg01_tmpl.jhtml?schoolId=1624
p1634
aVhttps://www.collegedata.com/cs/data/college/college_pg01_tmpl.jhtml?schoolId=1625
p1635
aVhttps://www.collegedata.com/cs/data/college/college_pg01_tmpl.jhtml?schoolId=1627
p1636
aVhttps://www.collegedata.com/cs/data/college/college_pg01_tmpl.jhtml?schoolId=1626
p1637
aVhttps://www.collegedata.com/cs/data/college/college_pg01_tmpl.jhtml?schoolId=3249
p1638
aVhttps://www.collegedata.com/cs/data/college/college_pg01_tmpl.jhtml?schoolId=3245
p1639
aVhttps://www.collegedata.com/cs/data/college/college_pg01_tmpl.jhtml?schoolId=3246
p1640
aVhttps://www.collegedata.com/cs/data/college/college_pg01_tmpl.jhtml?schoolId=3196
p1641
aVhttps://www.collegedata.com/cs/data/college/college_pg01_tmpl.jhtml?schoolId=1968
p1642
aVhttps://www.collegedata.com/cs/data/college/college_pg01_tmpl.jhtml?schoolId=1334
p1643
aVhttps://www.collegedata.com/cs/data/college/college_pg01_tmpl.jhtml?schoolId=1631
p1644
aVhttps://www.collegedata.com/cs/data/college/college_pg01_tmpl.jhtml?schoolId=1632
p1645
aVhttps://www.collegedata.com/cs/data/college/college_pg01_tmpl.jhtml?schoolId=971
p1646
aVhttps://www.collegedata.com/cs/data/college/college_pg01_tmpl.jhtml?schoolId=1637
p1647
aVhttps://www.collegedata.com/cs/data/college/college_pg01_tmpl.jhtml?schoolId=1639
p1648
aVhttps://www.collegedata.com/cs/data/college/college_pg01_tmpl.jhtml?schoolId=1652
p1649
aVhttps://www.collegedata.com/cs/data/college/college_pg01_tmpl.jhtml?schoolId=1640
p1650
aVhttps://www.collegedata.com/cs/data/college/college_pg01_tmpl.jhtml?schoolId=1656
p1651
aVhttps://www.collegedata.com/cs/data/college/college_pg01_tmpl.jhtml?schoolId=1642
p1652
aVhttps://www.collegedata.com/cs/data/college/college_pg01_tmpl.jhtml?schoolId=525
p1653
aVhttps://www.collegedata.com/cs/data/college/college_pg01_tmpl.jhtml?schoolId=1663
p1654
aVhttps://www.collegedata.com/cs/data/college/college_pg01_tmpl.jhtml?schoolId=1664
p1655
aVhttps://www.collegedata.com/cs/data/college/college_pg01_tmpl.jhtml?schoolId=896
p1656
aVhttps://www.collegedata.com/cs/data/college/college_pg01_tmpl.jhtml?schoolId=1665
p1657
aVhttps://www.collegedata.com/cs/data/college/college_pg01_tmpl.jhtml?schoolId=1644
p1658
aVhttps://www.collegedata.com/cs/data/college/college_pg01_tmpl.jhtml?schoolId=3236
p1659
aVhttps://www.collegedata.com/cs/data/college/college_pg01_tmpl.jhtml?schoolId=528
p1660
aVhttps://www.collegedata.com/cs/data/college/college_pg01_tmpl.jhtml?schoolId=518
p1661
aVhttps://www.collegedata.com/cs/data/college/college_pg01_tmpl.jhtml?schoolId=1650
p1662
aVhttps://www.collegedata.com/cs/data/college/college_pg01_tmpl.jhtml?schoolId=3084
p1663
aVhttps://www.collegedata.com/cs/data/college/college_pg01_tmpl.jhtml?schoolId=1454
p1664
aVhttps://www.collegedata.com/cs/data/college/college_pg01_tmpl.jhtml?schoolId=1659
p1665
aVhttps://www.collegedata.com/cs/data/college/college_pg01_tmpl.jhtml?schoolId=1633
p1666
aVhttps://www.collegedata.com/cs/data/college/college_pg01_tmpl.jhtml?schoolId=1634
p1667
aVhttps://www.collegedata.com/cs/data/college/college_pg01_tmpl.jhtml?schoolId=1331
p1668
aVhttps://www.collegedata.com/cs/data/college/college_pg01_tmpl.jhtml?schoolId=1635
p1669
aVhttps://www.collegedata.com/cs/data/college/college_pg01_tmpl.jhtml?schoolId=1653
p1670
aVhttps://www.collegedata.com/cs/data/college/college_pg01_tmpl.jhtml?schoolId=1662
p1671
aVhttps://www.collegedata.com/cs/data/college/college_pg01_tmpl.jhtml?schoolId=1661
p1672
aVhttps://www.collegedata.com/cs/data/college/college_pg01_tmpl.jhtml?schoolId=1563
p1673
aVhttps://www.collegedata.com/cs/data/college/college_pg01_tmpl.jhtml?schoolId=3059
p1674
aVhttps://www.collegedata.com/cs/data/college/college_pg01_tmpl.jhtml?schoolId=2043
p1675
aVhttps://www.collegedata.com/cs/data/college/college_pg01_tmpl.jhtml?schoolId=1660
p1676
aVhttps://www.collegedata.com/cs/data/college/college_pg01_tmpl.jhtml?schoolId=1332
p1677
aVhttps://www.collegedata.com/cs/data/college/college_pg01_tmpl.jhtml?schoolId=1420
p1678
aVhttps://www.collegedata.com/cs/data/college/college_pg01_tmpl.jhtml?schoolId=1461
p1679
aVhttps://www.collegedata.com/cs/data/college/college_pg01_tmpl.jhtml?schoolId=1304
p1680
aVhttps://www.collegedata.com/cs/data/college/college_pg01_tmpl.jhtml?schoolId=1548
p1681
aVhttps://www.collegedata.com/cs/data/college/college_pg01_tmpl.jhtml?schoolId=1550
p1682
aVhttps://www.collegedata.com/cs/data/college/college_pg01_tmpl.jhtml?schoolId=2054
p1683
aVhttps://www.collegedata.com/cs/data/college/college_pg01_tmpl.jhtml?schoolId=559
p1684
aVhttps://www.collegedata.com/cs/data/college/college_pg01_tmpl.jhtml?schoolId=1553
p1685
aVhttps://www.collegedata.com/cs/data/college/college_pg01_tmpl.jhtml?schoolId=3035
p1686
aVhttps://www.collegedata.com/cs/data/college/college_pg01_tmpl.jhtml?schoolId=1560
p1687
aVhttps://www.collegedata.com/cs/data/college/college_pg01_tmpl.jhtml?schoolId=493
p1688
aVhttps://www.collegedata.com/cs/data/college/college_pg01_tmpl.jhtml?schoolId=1455
p1689
aVhttps://www.collegedata.com/cs/data/college/college_pg01_tmpl.jhtml?schoolId=1458
p1690
aVhttps://www.collegedata.com/cs/data/college/college_pg01_tmpl.jhtml?schoolId=1669
p1691
aVhttps://www.collegedata.com/cs/data/college/college_pg01_tmpl.jhtml?schoolId=943
p1692
aVhttps://www.collegedata.com/cs/data/college/college_pg01_tmpl.jhtml?schoolId=975
p1693
aVhttps://www.collegedata.com/cs/data/college/college_pg01_tmpl.jhtml?schoolId=1990
p1694
aVhttps://www.collegedata.com/cs/data/college/college_pg01_tmpl.jhtml?schoolId=1510
p1695
aVhttps://www.collegedata.com/cs/data/college/college_pg01_tmpl.jhtml?schoolId=1526
p1696
aVhttps://www.collegedata.com/cs/data/college/college_pg01_tmpl.jhtml?schoolId=1052
p1697
aVhttps://www.collegedata.com/cs/data/college/college_pg01_tmpl.jhtml?schoolId=902
p1698
aVhttps://www.collegedata.com/cs/data/college/college_pg01_tmpl.jhtml?schoolId=1305
p1699
aVhttps://www.collegedata.com/cs/data/college/college_pg01_tmpl.jhtml?schoolId=1047
p1700
aVhttps://www.collegedata.com/cs/data/college/college_pg01_tmpl.jhtml?schoolId=1513
p1701
aVhttps://www.collegedata.com/cs/data/college/college_pg01_tmpl.jhtml?schoolId=1599
p1702
aVhttps://www.collegedata.com/cs/data/college/college_pg01_tmpl.jhtml?schoolId=1600
p1703
aVhttps://www.collegedata.com/cs/data/college/college_pg01_tmpl.jhtml?schoolId=1601
p1704
aVhttps://www.collegedata.com/cs/data/college/college_pg01_tmpl.jhtml?schoolId=1602
p1705
aVhttps://www.collegedata.com/cs/data/college/college_pg01_tmpl.jhtml?schoolId=1620
p1706
aVhttps://www.collegedata.com/cs/data/college/college_pg01_tmpl.jhtml?schoolId=1603
p1707
aVhttps://www.collegedata.com/cs/data/college/college_pg01_tmpl.jhtml?schoolId=1605
p1708
aVhttps://www.collegedata.com/cs/data/college/college_pg01_tmpl.jhtml?schoolId=1606
p1709
aVhttps://www.collegedata.com/cs/data/college/college_pg01_tmpl.jhtml?schoolId=3118
p1710
aVhttps://www.collegedata.com/cs/data/college/college_pg01_tmpl.jhtml?schoolId=3119
p1711
aVhttps://www.collegedata.com/cs/data/college/college_pg01_tmpl.jhtml?schoolId=3115
p1712
aVhttps://www.collegedata.com/cs/data/college/college_pg01_tmpl.jhtml?schoolId=3134
p1713
aVhttps://www.collegedata.com/cs/data/college/college_pg01_tmpl.jhtml?schoolId=3120
p1714
aVhttps://www.collegedata.com/cs/data/college/college_pg01_tmpl.jhtml?schoolId=3116
p1715
aVhttps://www.collegedata.com/cs/data/college/college_pg01_tmpl.jhtml?schoolId=3332
p1716
aVhttps://www.collegedata.com/cs/data/college/college_pg01_tmpl.jhtml?schoolId=3114
p1717
aVhttps://www.collegedata.com/cs/data/college/college_pg01_tmpl.jhtml?schoolId=1630
p1718
aVhttps://www.collegedata.com/cs/data/college/college_pg01_tmpl.jhtml?schoolId=1666
p1719
aVhttps://www.collegedata.com/cs/data/college/college_pg01_tmpl.jhtml?schoolId=1655
p1720
aVhttps://www.collegedata.com/cs/data/college/college_pg01_tmpl.jhtml?schoolId=1903
p1721
aVhttps://www.collegedata.com/cs/data/college/college_pg01_tmpl.jhtml?schoolId=1646
p1722
aVhttps://www.collegedata.com/cs/data/college/college_pg01_tmpl.jhtml?schoolId=1647
p1723
aVhttps://www.collegedata.com/cs/data/college/college_pg01_tmpl.jhtml?schoolId=3237
p1724
aVhttps://www.collegedata.com/cs/data/college/college_pg01_tmpl.jhtml?schoolId=3238
p1725
aVhttps://www.collegedata.com/cs/data/college/college_pg01_tmpl.jhtml?schoolId=1540
p1726
aVhttps://www.collegedata.com/cs/data/college/college_pg01_tmpl.jhtml?schoolId=1571
p1727
aVhttps://www.collegedata.com/cs/data/college/college_pg01_tmpl.jhtml?schoolId=1572
p1728
aVhttps://www.collegedata.com/cs/data/college/college_pg01_tmpl.jhtml?schoolId=1584
p1729
aVhttps://www.collegedata.com/cs/data/college/college_pg01_tmpl.jhtml?schoolId=1585
p1730
aVhttps://www.collegedata.com/cs/data/college/college_pg01_tmpl.jhtml?schoolId=1672
p1731
aVhttps://www.collegedata.com/cs/data/college/college_pg01_tmpl.jhtml?schoolId=541
p1732
aVhttps://www.collegedata.com/cs/data/college/college_pg01_tmpl.jhtml?schoolId=1561
p1733
aVhttps://www.collegedata.com/cs/data/college/college_pg01_tmpl.jhtml?schoolId=3362
p1734
aVhttps://www.collegedata.com/cs/data/college/college_pg01_tmpl.jhtml?schoolId=1565
p1735
aVhttps://www.collegedata.com/cs/data/college/college_pg01_tmpl.jhtml?schoolId=1567
p1736
aVhttps://www.collegedata.com/cs/data/college/college_pg01_tmpl.jhtml?schoolId=1568
p1737
aVhttps://www.collegedata.com/cs/data/college/college_pg01_tmpl.jhtml?schoolId=1569
p1738
aVhttps://www.collegedata.com/cs/data/college/college_pg01_tmpl.jhtml?schoolId=1570
p1739
aVhttps://www.collegedata.com/cs/data/college/college_pg01_tmpl.jhtml?schoolId=2036
p1740
aVhttps://www.collegedata.com/cs/data/college/college_pg01_tmpl.jhtml?schoolId=1573
p1741
aVhttps://www.collegedata.com/cs/data/college/college_pg01_tmpl.jhtml?schoolId=1574
p1742
aVhttps://www.collegedata.com/cs/data/college/college_pg01_tmpl.jhtml?schoolId=1575
p1743
aVhttps://www.collegedata.com/cs/data/college/college_pg01_tmpl.jhtml?schoolId=1576
p1744
aVhttps://www.collegedata.com/cs/data/college/college_pg01_tmpl.jhtml?schoolId=1577
p1745
aVhttps://www.collegedata.com/cs/data/college/college_pg01_tmpl.jhtml?schoolId=1467
p1746
aVhttps://www.collegedata.com/cs/data/college/college_pg01_tmpl.jhtml?schoolId=1579
p1747
aVhttps://www.collegedata.com/cs/data/college/college_pg01_tmpl.jhtml?schoolId=1580
p1748
aVhttps://www.collegedata.com/cs/data/college/college_pg01_tmpl.jhtml?schoolId=1581
p1749
aVhttps://www.collegedata.com/cs/data/college/college_pg01_tmpl.jhtml?schoolId=1582
p1750
aVhttps://www.collegedata.com/cs/data/college/college_pg01_tmpl.jhtml?schoolId=1583
p1751
aVhttps://www.collegedata.com/cs/data/college/college_pg01_tmpl.jhtml?schoolId=1586
p1752
aVhttps://www.collegedata.com/cs/data/college/college_pg01_tmpl.jhtml?schoolId=1588
p1753
aVhttps://www.collegedata.com/cs/data/college/college_pg01_tmpl.jhtml?schoolId=1589
p1754
aVhttps://www.collegedata.com/cs/data/college/college_pg01_tmpl.jhtml?schoolId=1587
p1755
aVhttps://www.collegedata.com/cs/data/college/college_pg01_tmpl.jhtml?schoolId=1590
p1756
aVhttps://www.collegedata.com/cs/data/college/college_pg01_tmpl.jhtml?schoolId=1591
p1757
aVhttps://www.collegedata.com/cs/data/college/college_pg01_tmpl.jhtml?schoolId=828
p1758
aVhttps://www.collegedata.com/cs/data/college/college_pg01_tmpl.jhtml?schoolId=1404
p1759
aVhttps://www.collegedata.com/cs/data/college/college_pg01_tmpl.jhtml?schoolId=1594
p1760
aVhttps://www.collegedata.com/cs/data/college/college_pg01_tmpl.jhtml?schoolId=1595
p1761
aVhttps://www.collegedata.com/cs/data/college/college_pg01_tmpl.jhtml?schoolId=1596
p1762
aVhttps://www.collegedata.com/cs/data/college/college_pg01_tmpl.jhtml?schoolId=1597
p1763
aVhttps://www.collegedata.com/cs/data/college/college_pg01_tmpl.jhtml?schoolId=892
p1764
aVhttps://www.collegedata.com/cs/data/college/college_pg01_tmpl.jhtml?schoolId=3076
p1765
aVhttps://www.collegedata.com/cs/data/college/college_pg01_tmpl.jhtml?schoolId=3074
p1766
aVhttps://www.collegedata.com/cs/data/college/college_pg01_tmpl.jhtml?schoolId=3352
p1767
aVhttps://www.collegedata.com/cs/data/college/college_pg01_tmpl.jhtml?schoolId=1415
p1768
aVhttps://www.collegedata.com/cs/data/college/college_pg01_tmpl.jhtml?schoolId=2072
p1769
aVhttps://www.collegedata.com/cs/data/college/college_pg01_tmpl.jhtml?schoolId=1188
p1770
aVhttps://www.collegedata.com/cs/data/college/college_pg01_tmpl.jhtml?schoolId=633
p1771
aVhttps://www.collegedata.com/cs/data/college/college_pg01_tmpl.jhtml?schoolId=458
p1772
aVhttps://www.collegedata.com/cs/data/college/college_pg01_tmpl.jhtml?schoolId=1686
p1773
aVhttps://www.collegedata.com/cs/data/college/college_pg01_tmpl.jhtml?schoolId=299
p1774
aVhttps://www.collegedata.com/cs/data/college/college_pg01_tmpl.jhtml?schoolId=1396
p1775
aVhttps://www.collegedata.com/cs/data/college/college_pg01_tmpl.jhtml?schoolId=629
p1776
aVhttps://www.collegedata.com/cs/data/college/college_pg01_tmpl.jhtml?schoolId=302
p1777
aVhttps://www.collegedata.com/cs/data/college/college_pg01_tmpl.jhtml?schoolId=1084
p1778
aVhttps://www.collegedata.com/cs/data/college/college_pg01_tmpl.jhtml?schoolId=664
p1779
aVhttps://www.collegedata.com/cs/data/college/college_pg01_tmpl.jhtml?schoolId=613
p1780
aVhttps://www.collegedata.com/cs/data/college/college_pg01_tmpl.jhtml?schoolId=723
p1781
aVhttps://www.collegedata.com/cs/data/college/college_pg01_tmpl.jhtml?schoolId=304
p1782
aVhttps://www.collegedata.com/cs/data/college/college_pg01_tmpl.jhtml?schoolId=867
p1783
aVhttps://www.collegedata.com/cs/data/college/college_pg01_tmpl.jhtml?schoolId=309
p1784
aVhttps://www.collegedata.com/cs/data/college/college_pg01_tmpl.jhtml?schoolId=3243
p1785
aVhttps://www.collegedata.com/cs/data/college/college_pg01_tmpl.jhtml?schoolId=310
p1786
aVhttps://www.collegedata.com/cs/data/college/college_pg01_tmpl.jhtml?schoolId=967
p1787
aVhttps://www.collegedata.com/cs/data/college/college_pg01_tmpl.jhtml?schoolId=2010
p1788
aVhttps://www.collegedata.com/cs/data/college/college_pg01_tmpl.jhtml?schoolId=316
p1789
aVhttps://www.collegedata.com/cs/data/college/college_pg01_tmpl.jhtml?schoolId=1397
p1790
aVhttps://www.collegedata.com/cs/data/college/college_pg01_tmpl.jhtml?schoolId=1365
p1791
aVhttps://www.collegedata.com/cs/data/college/college_pg01_tmpl.jhtml?schoolId=321
p1792
aVhttps://www.collegedata.com/cs/data/college/college_pg01_tmpl.jhtml?schoolId=322
p1793
aVhttps://www.collegedata.com/cs/data/college/college_pg01_tmpl.jhtml?schoolId=682
p1794
aVhttps://www.collegedata.com/cs/data/college/college_pg01_tmpl.jhtml?schoolId=1279
p1795
aVhttps://www.collegedata.com/cs/data/college/college_pg01_tmpl.jhtml?schoolId=330
p1796
aVhttps://www.collegedata.com/cs/data/college/college_pg01_tmpl.jhtml?schoolId=266
p1797
aVhttps://www.collegedata.com/cs/data/college/college_pg01_tmpl.jhtml?schoolId=335
p1798
aVhttps://www.collegedata.com/cs/data/college/college_pg01_tmpl.jhtml?schoolId=454
p1799
aVhttps://www.collegedata.com/cs/data/college/college_pg01_tmpl.jhtml?schoolId=790
p1800
aVhttps://www.collegedata.com/cs/data/college/college_pg01_tmpl.jhtml?schoolId=397
p1801
aVhttps://www.collegedata.com/cs/data/college/college_pg01_tmpl.jhtml?schoolId=1804
p1802
aVhttps://www.collegedata.com/cs/data/college/college_pg01_tmpl.jhtml?schoolId=337
p1803
aVhttps://www.collegedata.com/cs/data/college/college_pg01_tmpl.jhtml?schoolId=339
p1804
aVhttps://www.collegedata.com/cs/data/college/college_pg01_tmpl.jhtml?schoolId=342
p1805
aVhttps://www.collegedata.com/cs/data/college/college_pg01_tmpl.jhtml?schoolId=638
p1806
aVhttps://www.collegedata.com/cs/data/college/college_pg01_tmpl.jhtml?schoolId=343
p1807
aVhttps://www.collegedata.com/cs/data/college/college_pg01_tmpl.jhtml?schoolId=345
p1808
aVhttps://www.collegedata.com/cs/data/college/college_pg01_tmpl.jhtml?schoolId=1929
p1809
aVhttps://www.collegedata.com/cs/data/college/college_pg01_tmpl.jhtml?schoolId=3201
p1810
aVhttps://www.collegedata.com/cs/data/college/college_pg01_tmpl.jhtml?schoolId=660
p1811
aVhttps://www.collegedata.com/cs/data/college/college_pg01_tmpl.jhtml?schoolId=813
p1812
aVhttps://www.collegedata.com/cs/data/college/college_pg01_tmpl.jhtml?schoolId=346
p1813
aVhttps://www.collegedata.com/cs/data/college/college_pg01_tmpl.jhtml?schoolId=934
p1814
aVhttps://www.collegedata.com/cs/data/college/college_pg01_tmpl.jhtml?schoolId=671
p1815
aVhttps://www.collegedata.com/cs/data/college/college_pg01_tmpl.jhtml?schoolId=3336
p1816
aVhttps://www.collegedata.com/cs/data/college/college_pg01_tmpl.jhtml?schoolId=873
p1817
aVhttps://www.collegedata.com/cs/data/college/college_pg01_tmpl.jhtml?schoolId=1358
p1818
aVhttps://www.collegedata.com/cs/data/college/college_pg01_tmpl.jhtml?schoolId=1164
p1819
aVhttps://www.collegedata.com/cs/data/college/college_pg01_tmpl.jhtml?schoolId=851
p1820
aVhttps://www.collegedata.com/cs/data/college/college_pg01_tmpl.jhtml?schoolId=359
p1821
aVhttps://www.collegedata.com/cs/data/college/college_pg01_tmpl.jhtml?schoolId=360
p1822
aVhttps://www.collegedata.com/cs/data/college/college_pg01_tmpl.jhtml?schoolId=1359
p1823
aVhttps://www.collegedata.com/cs/data/college/college_pg01_tmpl.jhtml?schoolId=1673
p1824
aVhttps://www.collegedata.com/cs/data/college/college_pg01_tmpl.jhtml?schoolId=1020
p1825
aVhttps://www.collegedata.com/cs/data/college/college_pg01_tmpl.jhtml?schoolId=1756
p1826
aVhttps://www.collegedata.com/cs/data/college/college_pg01_tmpl.jhtml?schoolId=827
p1827
aVhttps://www.collegedata.com/cs/data/college/college_pg01_tmpl.jhtml?schoolId=722
p1828
aVhttps://www.collegedata.com/cs/data/college/college_pg01_tmpl.jhtml?schoolId=1209
p1829
aVhttps://www.collegedata.com/cs/data/college/college_pg01_tmpl.jhtml?schoolId=1822
p1830
aVhttps://www.collegedata.com/cs/data/college/college_pg01_tmpl.jhtml?schoolId=1409
p1831
aVhttps://www.collegedata.com/cs/data/college/college_pg01_tmpl.jhtml?schoolId=1295
p1832
aVhttps://www.collegedata.com/cs/data/college/college_pg01_tmpl.jhtml?schoolId=1017
p1833
aVhttps://www.collegedata.com/cs/data/college/college_pg01_tmpl.jhtml?schoolId=942
p1834
aVhttps://www.collegedata.com/cs/data/college/college_pg01_tmpl.jhtml?schoolId=1846
p1835
aVhttps://www.collegedata.com/cs/data/college/college_pg01_tmpl.jhtml?schoolId=997
p1836
aVhttps://www.collegedata.com/cs/data/college/college_pg01_tmpl.jhtml?schoolId=1750
p1837
aVhttps://www.collegedata.com/cs/data/college/college_pg01_tmpl.jhtml?schoolId=1820
p1838
aVhttps://www.collegedata.com/cs/data/college/college_pg01_tmpl.jhtml?schoolId=1002
p1839
aVhttps://www.collegedata.com/cs/data/college/college_pg01_tmpl.jhtml?schoolId=953
p1840
aVhttps://www.collegedata.com/cs/data/college/college_pg01_tmpl.jhtml?schoolId=1007
p1841
aVhttps://www.collegedata.com/cs/data/college/college_pg01_tmpl.jhtml?schoolId=1848
p1842
aVhttps://www.collegedata.com/cs/data/college/college_pg01_tmpl.jhtml?schoolId=1101
p1843
aVhttps://www.collegedata.com/cs/data/college/college_pg01_tmpl.jhtml?schoolId=1784
p1844
aVhttps://www.collegedata.com/cs/data/college/college_pg01_tmpl.jhtml?schoolId=808
p1845
aVhttps://www.collegedata.com/cs/data/college/college_pg01_tmpl.jhtml?schoolId=646
p1846
aVhttps://www.collegedata.com/cs/data/college/college_pg01_tmpl.jhtml?schoolId=1216
p1847
aVhttps://www.collegedata.com/cs/data/college/college_pg01_tmpl.jhtml?schoolId=744
p1848
aVhttps://www.collegedata.com/cs/data/college/college_pg01_tmpl.jhtml?schoolId=936
p1849
aVhttps://www.collegedata.com/cs/data/college/college_pg01_tmpl.jhtml?schoolId=3003
p1850
aVhttps://www.collegedata.com/cs/data/college/college_pg01_tmpl.jhtml?schoolId=3320
p1851
aVhttps://www.collegedata.com/cs/data/college/college_pg01_tmpl.jhtml?schoolId=2039
p1852
aVhttps://www.collegedata.com/cs/data/college/college_pg01_tmpl.jhtml?schoolId=3342
p1853
aVhttps://www.collegedata.com/cs/data/college/college_pg01_tmpl.jhtml?schoolId=1003
p1854
aVhttps://www.collegedata.com/cs/data/college/college_pg01_tmpl.jhtml?schoolId=373
p1855
aVhttps://www.collegedata.com/cs/data/college/college_pg01_tmpl.jhtml?schoolId=3224
p1856
aVhttps://www.collegedata.com/cs/data/college/college_pg01_tmpl.jhtml?schoolId=1009
p1857
aVhttps://www.collegedata.com/cs/data/college/college_pg01_tmpl.jhtml?schoolId=907
p1858
aVhttps://www.collegedata.com/cs/data/college/college_pg01_tmpl.jhtml?schoolId=1789
p1859
aVhttps://www.collegedata.com/cs/data/college/college_pg01_tmpl.jhtml?schoolId=996
p1860
aVhttps://www.collegedata.com/cs/data/college/college_pg01_tmpl.jhtml?schoolId=839
p1861
aVhttps://www.collegedata.com/cs/data/college/college_pg01_tmpl.jhtml?schoolId=358
p1862
aVhttps://www.collegedata.com/cs/data/college/college_pg01_tmpl.jhtml?schoolId=948
p1863
aVhttps://www.collegedata.com/cs/data/college/college_pg01_tmpl.jhtml?schoolId=924
p1864
aVhttps://www.collegedata.com/cs/data/college/college_pg01_tmpl.jhtml?schoolId=3225
p1865
aVhttps://www.collegedata.com/cs/data/college/college_pg01_tmpl.jhtml?schoolId=1158
p1866
aVhttps://www.collegedata.com/cs/data/college/college_pg01_tmpl.jhtml?schoolId=1924
p1867
aVhttps://www.collegedata.com/cs/data/college/college_pg01_tmpl.jhtml?schoolId=377
p1868
aVhttps://www.collegedata.com/cs/data/college/college_pg01_tmpl.jhtml?schoolId=1110
p1869
aVhttps://www.collegedata.com/cs/data/college/college_pg01_tmpl.jhtml?schoolId=653
p1870
aVhttps://www.collegedata.com/cs/data/college/college_pg01_tmpl.jhtml?schoolId=2061
p1871
aVhttps://www.collegedata.com/cs/data/college/college_pg01_tmpl.jhtml?schoolId=884
p1872
aVhttps://www.collegedata.com/cs/data/college/college_pg01_tmpl.jhtml?schoolId=994
p1873
aVhttps://www.collegedata.com/cs/data/college/college_pg01_tmpl.jhtml?schoolId=961
p1874
aVhttps://www.collegedata.com/cs/data/college/college_pg01_tmpl.jhtml?schoolId=1116
p1875
aVhttps://www.collegedata.com/cs/data/college/college_pg01_tmpl.jhtml?schoolId=986
p1876
aVhttps://www.collegedata.com/cs/data/college/college_pg01_tmpl.jhtml?schoolId=382
p1877
aVhttps://www.collegedata.com/cs/data/college/college_pg01_tmpl.jhtml?schoolId=1740
p1878
aVhttps://www.collegedata.com/cs/data/college/college_pg01_tmpl.jhtml?schoolId=819
p1879
aVhttps://www.collegedata.com/cs/data/college/college_pg01_tmpl.jhtml?schoolId=988
p1880
aVhttps://www.collegedata.com/cs/data/college/college_pg01_tmpl.jhtml?schoolId=981
p1881
aVhttps://www.collegedata.com/cs/data/college/college_pg01_tmpl.jhtml?schoolId=1787
p1882
aVhttps://www.collegedata.com/cs/data/college/college_pg01_tmpl.jhtml?schoolId=674
p1883
aVhttps://www.collegedata.com/cs/data/college/college_pg01_tmpl.jhtml?schoolId=383
p1884
aVhttps://www.collegedata.com/cs/data/college/college_pg01_tmpl.jhtml?schoolId=3179
p1885
aVhttps://www.collegedata.com/cs/data/college/college_pg01_tmpl.jhtml?schoolId=3005
p1886
aVhttps://www.collegedata.com/cs/data/college/college_pg01_tmpl.jhtml?schoolId=3244
p1887
aVhttps://www.collegedata.com/cs/data/college/college_pg01_tmpl.jhtml?schoolId=728
p1888
aVhttps://www.collegedata.com/cs/data/college/college_pg01_tmpl.jhtml?schoolId=3097
p1889
aVhttps://www.collegedata.com/cs/data/college/college_pg01_tmpl.jhtml?schoolId=1382
p1890
aVhttps://www.collegedata.com/cs/data/college/college_pg01_tmpl.jhtml?schoolId=1399
p1891
aVhttps://www.collegedata.com/cs/data/college/college_pg01_tmpl.jhtml?schoolId=1400
p1892
aVhttps://www.collegedata.com/cs/data/college/college_pg01_tmpl.jhtml?schoolId=1118
p1893
aVhttps://www.collegedata.com/cs/data/college/college_pg01_tmpl.jhtml?schoolId=667
p1894
aVhttps://www.collegedata.com/cs/data/college/college_pg01_tmpl.jhtml?schoolId=1786
p1895
aVhttps://www.collegedata.com/cs/data/college/college_pg01_tmpl.jhtml?schoolId=750
p1896
aVhttps://www.collegedata.com/cs/data/college/college_pg01_tmpl.jhtml?schoolId=1120
p1897
aVhttps://www.collegedata.com/cs/data/college/college_pg01_tmpl.jhtml?schoolId=1776
p1898
aVhttps://www.collegedata.com/cs/data/college/college_pg01_tmpl.jhtml?schoolId=386
p1899
aVhttps://www.collegedata.com/cs/data/college/college_pg01_tmpl.jhtml?schoolId=1364
p1900
aVhttps://www.collegedata.com/cs/data/college/college_pg01_tmpl.jhtml?schoolId=1254
p1901
aVhttps://www.collegedata.com/cs/data/college/college_pg01_tmpl.jhtml?schoolId=3272
p1902
aVhttps://www.collegedata.com/cs/data/college/college_pg01_tmpl.jhtml?schoolId=925
p1903
aVhttps://www.collegedata.com/cs/data/college/college_pg01_tmpl.jhtml?schoolId=1373
p1904
aVhttps://www.collegedata.com/cs/data/college/college_pg01_tmpl.jhtml?schoolId=1802
p1905
aVhttps://www.collegedata.com/cs/data/college/college_pg01_tmpl.jhtml?schoolId=1124
p1906
aVhttps://www.collegedata.com/cs/data/college/college_pg01_tmpl.jhtml?schoolId=763
p1907
aVhttps://www.collegedata.com/cs/data/college/college_pg01_tmpl.jhtml?schoolId=1282
p1908
aVhttps://www.collegedata.com/cs/data/college/college_pg01_tmpl.jhtml?schoolId=3195
p1909
aVhttps://www.collegedata.com/cs/data/college/college_pg01_tmpl.jhtml?schoolId=3247
p1910
aVhttps://www.collegedata.com/cs/data/college/college_pg01_tmpl.jhtml?schoolId=2067
p1911
aVhttps://www.collegedata.com/cs/data/college/college_pg01_tmpl.jhtml?schoolId=3234
p1912
aVhttps://www.collegedata.com/cs/data/college/college_pg01_tmpl.jhtml?schoolId=1294
p1913
aVhttps://www.collegedata.com/cs/data/college/college_pg01_tmpl.jhtml?schoolId=1794
p1914
aVhttps://www.collegedata.com/cs/data/college/college_pg01_tmpl.jhtml?schoolId=1795
p1915
aVhttps://www.collegedata.com/cs/data/college/college_pg01_tmpl.jhtml?schoolId=1799
p1916
aVhttps://www.collegedata.com/cs/data/college/college_pg01_tmpl.jhtml?schoolId=1367
p1917
aVhttps://www.collegedata.com/cs/data/college/college_pg01_tmpl.jhtml?schoolId=1801
p1918
aVhttps://www.collegedata.com/cs/data/college/college_pg01_tmpl.jhtml?schoolId=3235
p1919
aVhttps://www.collegedata.com/cs/data/college/college_pg01_tmpl.jhtml?schoolId=1746
p1920
aVhttps://www.collegedata.com/cs/data/college/college_pg01_tmpl.jhtml?schoolId=1283
p1921
aVhttps://www.collegedata.com/cs/data/college/college_pg01_tmpl.jhtml?schoolId=927
p1922
aVhttps://www.collegedata.com/cs/data/college/college_pg01_tmpl.jhtml?schoolId=774
p1923
aVhttps://www.collegedata.com/cs/data/college/college_pg01_tmpl.jhtml?schoolId=1745
p1924
aVhttps://www.collegedata.com/cs/data/college/college_pg01_tmpl.jhtml?schoolId=1741
p1925
aVhttps://www.collegedata.com/cs/data/college/college_pg01_tmpl.jhtml?schoolId=1739
p1926
aVhttps://www.collegedata.com/cs/data/college/college_pg01_tmpl.jhtml?schoolId=1143
p1927
aVhttps://www.collegedata.com/cs/data/college/college_pg01_tmpl.jhtml?schoolId=978
p1928
aVhttps://www.collegedata.com/cs/data/college/college_pg01_tmpl.jhtml?schoolId=1792
p1929
aVhttps://www.collegedata.com/cs/data/college/college_pg01_tmpl.jhtml?schoolId=905
p1930
aVhttps://www.collegedata.com/cs/data/college/college_pg01_tmpl.jhtml?schoolId=1366
p1931
aVhttps://www.collegedata.com/cs/data/college/college_pg01_tmpl.jhtml?schoolId=1754
p1932
aVhttps://www.collegedata.com/cs/data/college/college_pg01_tmpl.jhtml?schoolId=1737
p1933
aVhttps://www.collegedata.com/cs/data/college/college_pg01_tmpl.jhtml?schoolId=918
p1934
aVhttps://www.collegedata.com/cs/data/college/college_pg01_tmpl.jhtml?schoolId=1156
p1935
aVhttps://www.collegedata.com/cs/data/college/college_pg01_tmpl.jhtml?schoolId=1297
p1936
aVhttps://www.collegedata.com/cs/data/college/college_pg01_tmpl.jhtml?schoolId=1779
p1937
aVhttps://www.collegedata.com/cs/data/college/college_pg01_tmpl.jhtml?schoolId=685
p1938
aVhttps://www.collegedata.com/cs/data/college/college_pg01_tmpl.jhtml?schoolId=324
p1939
aVhttps://www.collegedata.com/cs/data/college/college_pg01_tmpl.jhtml?schoolId=361
p1940
aVhttps://www.collegedata.com/cs/data/college/college_pg01_tmpl.jhtml?schoolId=1767
p1941
aVhttps://www.collegedata.com/cs/data/college/college_pg01_tmpl.jhtml?schoolId=940
p1942
aVhttps://www.collegedata.com/cs/data/college/college_pg01_tmpl.jhtml?schoolId=957
p1943
aVhttps://www.collegedata.com/cs/data/college/college_pg01_tmpl.jhtml?schoolId=1301
p1944
aVhttps://www.collegedata.com/cs/data/college/college_pg01_tmpl.jhtml?schoolId=990
p1945
aVhttps://www.collegedata.com/cs/data/college/college_pg01_tmpl.jhtml?schoolId=872
p1946
aVhttps://www.collegedata.com/cs/data/college/college_pg01_tmpl.jhtml?schoolId=3366
p1947
aVhttps://www.collegedata.com/cs/data/college/college_pg01_tmpl.jhtml?schoolId=991
p1948
aVhttps://www.collegedata.com/cs/data/college/college_pg01_tmpl.jhtml?schoolId=1772
p1949
aVhttps://www.collegedata.com/cs/data/college/college_pg01_tmpl.jhtml?schoolId=829
p1950
aVhttps://www.collegedata.com/cs/data/college/college_pg01_tmpl.jhtml?schoolId=1775
p1951
aVhttps://www.collegedata.com/cs/data/college/college_pg01_tmpl.jhtml?schoolId=1067
p1952
aVhttps://www.collegedata.com/cs/data/college/college_pg01_tmpl.jhtml?schoolId=1111
p1953
aVhttps://www.collegedata.com/cs/data/college/college_pg01_tmpl.jhtml?schoolId=853
p1954
aVhttps://www.collegedata.com/cs/data/college/college_pg01_tmpl.jhtml?schoolId=1243
p1955
aVhttps://www.collegedata.com/cs/data/college/college_pg01_tmpl.jhtml?schoolId=735
p1956
aVhttps://www.collegedata.com/cs/data/college/college_pg01_tmpl.jhtml?schoolId=385
p1957
aVhttps://www.collegedata.com/cs/data/college/college_pg01_tmpl.jhtml?schoolId=387
p1958
aVhttps://www.collegedata.com/cs/data/college/college_pg01_tmpl.jhtml?schoolId=721
p1959
aVhttps://www.collegedata.com/cs/data/college/college_pg01_tmpl.jhtml?schoolId=1136
p1960
aVhttps://www.collegedata.com/cs/data/college/college_pg01_tmpl.jhtml?schoolId=745
p1961
aVhttps://www.collegedata.com/cs/data/college/college_pg01_tmpl.jhtml?schoolId=1749
p1962
aVhttps://www.collegedata.com/cs/data/college/college_pg01_tmpl.jhtml?schoolId=1729
p1963
aVhttps://www.collegedata.com/cs/data/college/college_pg01_tmpl.jhtml?schoolId=711
p1964
aVhttps://www.collegedata.com/cs/data/college/college_pg01_tmpl.jhtml?schoolId=563
p1965
aVhttps://www.collegedata.com/cs/data/college/college_pg01_tmpl.jhtml?schoolId=1721
p1966
aVhttps://www.collegedata.com/cs/data/college/college_pg01_tmpl.jhtml?schoolId=864
p1967
aVhttps://www.collegedata.com/cs/data/college/college_pg01_tmpl.jhtml?schoolId=1720
p1968
aVhttps://www.collegedata.com/cs/data/college/college_pg01_tmpl.jhtml?schoolId=930
p1969
aVhttps://www.collegedata.com/cs/data/college/college_pg01_tmpl.jhtml?schoolId=1718
p1970
aVhttps://www.collegedata.com/cs/data/college/college_pg01_tmpl.jhtml?schoolId=1715
p1971
aVhttps://www.collegedata.com/cs/data/college/college_pg01_tmpl.jhtml?schoolId=1152
p1972
aVhttps://www.collegedata.com/cs/data/college/college_pg01_tmpl.jhtml?schoolId=1712
p1973
aVhttps://www.collegedata.com/cs/data/college/college_pg01_tmpl.jhtml?schoolId=1711
p1974
aVhttps://www.collegedata.com/cs/data/college/college_pg01_tmpl.jhtml?schoolId=1709
p1975
aVhttps://www.collegedata.com/cs/data/college/college_pg01_tmpl.jhtml?schoolId=1707
p1976
aVhttps://www.collegedata.com/cs/data/college/college_pg01_tmpl.jhtml?schoolId=1313
p1977
a.